ARM GAS  C:\Users\nvdun\AppData\Local\Temp\cc3GhLiw.s 			page 1


   1              		.cpu cortex-m4
   2              		.eabi_attribute 20, 1
   3              		.eabi_attribute 21, 1
   4              		.eabi_attribute 23, 3
   5              		.eabi_attribute 24, 1
   6              		.eabi_attribute 25, 1
   7              		.eabi_attribute 26, 1
   8              		.eabi_attribute 30, 6
   9              		.eabi_attribute 34, 1
  10              		.eabi_attribute 18, 4
  11              		.file	"Can_Internals.c"
  12              		.text
  13              	.Ltext0:
  14              		.cfi_sections	.debug_frame
  15              		.align	1
  16              		.global	Can_HwInit
  17              		.syntax unified
  18              		.thumb
  19              		.thumb_func
  20              		.fpu softvfp
  21              		.type	Can_HwInit, %function
  22              	Can_HwInit:
  23              	.LFB0:
  24              		.file 1 "../github/stm32/modules/CAN/src/Can_Internals.c"
   1:../github/stm32/modules/CAN/src/Can_Internals.c **** /*******************************************************************************
   2:../github/stm32/modules/CAN/src/Can_Internals.c **** * File:         Can_Internals.c
   3:../github/stm32/modules/CAN/src/Can_Internals.c **** * Revision:
   4:../github/stm32/modules/CAN/src/Can_Internals.c **** * Author:
   5:../github/stm32/modules/CAN/src/Can_Internals.c **** * Date:         04.09.2019
   6:../github/stm32/modules/CAN/src/Can_Internals.c **** * Description:  
   7:../github/stm32/modules/CAN/src/Can_Internals.c **** *******************************************************************************/
   8:../github/stm32/modules/CAN/src/Can_Internals.c **** 
   9:../github/stm32/modules/CAN/src/Can_Internals.c **** #include "Can_Internals.h"
  10:../github/stm32/modules/CAN/src/Can_Internals.c **** 
  11:../github/stm32/modules/CAN/src/Can_Internals.c **** /*
  12:../github/stm32/modules/CAN/src/Can_Internals.c ****  *  Service Name...... : Can_DeInit
  13:../github/stm32/modules/CAN/src/Can_Internals.c ****  *  Service ID      .. : None
  14:../github/stm32/modules/CAN/src/Can_Internals.c ****  *  Sync/Async........ : Asynchronous
  15:../github/stm32/modules/CAN/src/Can_Internals.c ****  *  Reentrancy........ : Non Reentrant
  16:../github/stm32/modules/CAN/src/Can_Internals.c ****  *  Parameters (IN)... : Controller
  17:../github/stm32/modules/CAN/src/Can_Internals.c ****  *  Parameters (INOUT) : None
  18:../github/stm32/modules/CAN/src/Can_Internals.c ****  *  Parameters (OUT).. : None
  19:../github/stm32/modules/CAN/src/Can_Internals.c ****  *  Return Value...... : boolean(true/false)
  20:../github/stm32/modules/CAN/src/Can_Internals.c ****  *  Register usage     : 
  21:../github/stm32/modules/CAN/src/Can_Internals.c ****  *  Global variable    : 
  22:../github/stm32/modules/CAN/src/Can_Internals.c ****  *  Description....... : 
  23:../github/stm32/modules/CAN/src/Can_Internals.c ****  */
  24:../github/stm32/modules/CAN/src/Can_Internals.c **** FUNC(boolean, CAN_CODE_SLOW) Can_HwInit(VAR(uint8, AUTOMATIC) Controller)
  25:../github/stm32/modules/CAN/src/Can_Internals.c **** {
  25              		.loc 1 25 0
  26              		.cfi_startproc
  27              		@ args = 0, pretend = 0, frame = 16
  28              		@ frame_needed = 1, uses_anonymous_args = 0
  29              		@ link register save eliminated.
  30 0000 80B4     		push	{r7}
  31              	.LCFI0:
  32              		.cfi_def_cfa_offset 4
ARM GAS  C:\Users\nvdun\AppData\Local\Temp\cc3GhLiw.s 			page 2


  33              		.cfi_offset 7, -4
  34 0002 85B0     		sub	sp, sp, #20
  35              	.LCFI1:
  36              		.cfi_def_cfa_offset 24
  37 0004 00AF     		add	r7, sp, #0
  38              	.LCFI2:
  39              		.cfi_def_cfa_register 7
  40 0006 0346     		mov	r3, r0
  41 0008 FB71     		strb	r3, [r7, #7]
  26:../github/stm32/modules/CAN/src/Can_Internals.c ****   boolean Lbl_InitSts;
  27:../github/stm32/modules/CAN/src/Can_Internals.c ****   
  28:../github/stm32/modules/CAN/src/Can_Internals.c ****   
  29:../github/stm32/modules/CAN/src/Can_Internals.c ****   return Lbl_InitSts;
  42              		.loc 1 29 0
  43 000a FB7B     		ldrb	r3, [r7, #15]	@ zero_extendqisi2
  30:../github/stm32/modules/CAN/src/Can_Internals.c **** }
  44              		.loc 1 30 0
  45 000c 1846     		mov	r0, r3
  46 000e 1437     		adds	r7, r7, #20
  47              	.LCFI3:
  48              		.cfi_def_cfa_offset 4
  49 0010 BD46     		mov	sp, r7
  50              	.LCFI4:
  51              		.cfi_def_cfa_register 13
  52              		@ sp needed
  53 0012 80BC     		pop	{r7}
  54              	.LCFI5:
  55              		.cfi_restore 7
  56              		.cfi_def_cfa_offset 0
  57 0014 7047     		bx	lr
  58              		.cfi_endproc
  59              	.LFE0:
  60              		.size	Can_HwInit, .-Can_HwInit
  61              		.align	1
  62              		.global	Can_HwDeInit
  63              		.syntax unified
  64              		.thumb
  65              		.thumb_func
  66              		.fpu softvfp
  67              		.type	Can_HwDeInit, %function
  68              	Can_HwDeInit:
  69              	.LFB1:
  31:../github/stm32/modules/CAN/src/Can_Internals.c **** 
  32:../github/stm32/modules/CAN/src/Can_Internals.c **** /*
  33:../github/stm32/modules/CAN/src/Can_Internals.c ****  *  Service Name...... : Can_HwDeInit
  34:../github/stm32/modules/CAN/src/Can_Internals.c ****  *  Service ID      .. : None
  35:../github/stm32/modules/CAN/src/Can_Internals.c ****  *  Sync/Async........ : Asynchronous
  36:../github/stm32/modules/CAN/src/Can_Internals.c ****  *  Reentrancy........ : Non Reentrant
  37:../github/stm32/modules/CAN/src/Can_Internals.c ****  *  Parameters (IN)... : Controller
  38:../github/stm32/modules/CAN/src/Can_Internals.c ****  *  Parameters (INOUT) : None
  39:../github/stm32/modules/CAN/src/Can_Internals.c ****  *  Parameters (OUT).. : None
  40:../github/stm32/modules/CAN/src/Can_Internals.c ****  *  Return Value...... : boolean(true/false)
  41:../github/stm32/modules/CAN/src/Can_Internals.c ****  *  Register usage     : 
  42:../github/stm32/modules/CAN/src/Can_Internals.c ****  *  Global variable    : 
  43:../github/stm32/modules/CAN/src/Can_Internals.c ****  *  Description....... : 
  44:../github/stm32/modules/CAN/src/Can_Internals.c ****  */
  45:../github/stm32/modules/CAN/src/Can_Internals.c **** FUNC(boolean, CAN_CODE_SLOW) Can_HwDeInit(VAR(uint8, AUTOMATIC) Controller)
ARM GAS  C:\Users\nvdun\AppData\Local\Temp\cc3GhLiw.s 			page 3


  46:../github/stm32/modules/CAN/src/Can_Internals.c **** {
  70              		.loc 1 46 0
  71              		.cfi_startproc
  72              		@ args = 0, pretend = 0, frame = 16
  73              		@ frame_needed = 1, uses_anonymous_args = 0
  74              		@ link register save eliminated.
  75 0016 80B4     		push	{r7}
  76              	.LCFI6:
  77              		.cfi_def_cfa_offset 4
  78              		.cfi_offset 7, -4
  79 0018 85B0     		sub	sp, sp, #20
  80              	.LCFI7:
  81              		.cfi_def_cfa_offset 24
  82 001a 00AF     		add	r7, sp, #0
  83              	.LCFI8:
  84              		.cfi_def_cfa_register 7
  85 001c 0346     		mov	r3, r0
  86 001e FB71     		strb	r3, [r7, #7]
  47:../github/stm32/modules/CAN/src/Can_Internals.c ****   boolean Lbl_DeInitSts;
  48:../github/stm32/modules/CAN/src/Can_Internals.c ****   
  49:../github/stm32/modules/CAN/src/Can_Internals.c ****   
  50:../github/stm32/modules/CAN/src/Can_Internals.c ****   return Lbl_DeInitSts;
  87              		.loc 1 50 0
  88 0020 FB7B     		ldrb	r3, [r7, #15]	@ zero_extendqisi2
  51:../github/stm32/modules/CAN/src/Can_Internals.c **** }
  89              		.loc 1 51 0
  90 0022 1846     		mov	r0, r3
  91 0024 1437     		adds	r7, r7, #20
  92              	.LCFI9:
  93              		.cfi_def_cfa_offset 4
  94 0026 BD46     		mov	sp, r7
  95              	.LCFI10:
  96              		.cfi_def_cfa_register 13
  97              		@ sp needed
  98 0028 80BC     		pop	{r7}
  99              	.LCFI11:
 100              		.cfi_restore 7
 101              		.cfi_def_cfa_offset 0
 102 002a 7047     		bx	lr
 103              		.cfi_endproc
 104              	.LFE1:
 105              		.size	Can_HwDeInit, .-Can_HwDeInit
 106              	.Letext0:
 107              		.file 2 "../github/stm32/common/platform/include/Platform_Types.h"
 108              		.file 3 "../github/stm32/common/stub/CanGeneral/include/Can_GeneralTypes.h"
 109              		.file 4 "../github/stm32/common/stub/EcuM/include/EcuM.h"
 110              		.file 5 "../github/stm32/modules/CAN/include/Can_Types.h"
 111              		.file 6 "../github/stm32/modules/CAN/include/Can_PBTypes.h"
 112              		.file 7 "../github/stm32/modules/CAN/include/Can_PCTypes.h"
 113              		.file 8 "../github/stm32/modules/CAN/include/Can.h"