ARM GAS  C:\Users\nvdun\AppData\Local\Temp\ccrp251B.s 			page 1


   1              		.cpu cortex-m4
   2              		.eabi_attribute 20, 1
   3              		.eabi_attribute 21, 1
   4              		.eabi_attribute 23, 3
   5              		.eabi_attribute 24, 1
   6              		.eabi_attribute 25, 1
   7              		.eabi_attribute 26, 1
   8              		.eabi_attribute 30, 6
   9              		.eabi_attribute 34, 1
  10              		.eabi_attribute 18, 4
  11              		.file	"Interrupt.c"
  12              		.text
  13              	.Ltext0:
  14              		.cfi_sections	.debug_frame
  15              		.align	1
  16              		.global	NMIException
  17              		.syntax unified
  18              		.thumb
  19              		.thumb_func
  20              		.fpu softvfp
  21              		.type	NMIException, %function
  22              	NMIException:
  23              	.LFB0:
  24              		.file 1 "../github/stm32/common/interrupt/src/Interrupt.c"
   1:../github/stm32/common/interrupt/src/Interrupt.c **** #include "Interrupt.h"
   2:../github/stm32/common/interrupt/src/Interrupt.c **** 
   3:../github/stm32/common/interrupt/src/Interrupt.c **** void NMIException(void)
   4:../github/stm32/common/interrupt/src/Interrupt.c **** {
  25              		.loc 1 4 0
  26              		.cfi_startproc
  27              		@ args = 0, pretend = 0, frame = 0
  28              		@ frame_needed = 1, uses_anonymous_args = 0
  29              		@ link register save eliminated.
  30 0000 80B4     		push	{r7}
  31              	.LCFI0:
  32              		.cfi_def_cfa_offset 4
  33              		.cfi_offset 7, -4
  34 0002 00AF     		add	r7, sp, #0
  35              	.LCFI1:
  36              		.cfi_def_cfa_register 7
   5:../github/stm32/common/interrupt/src/Interrupt.c ****   WFI;
  37              		.loc 1 5 0
  38              		.syntax unified
  39              	@ 5 "../github/stm32/common/interrupt/src/Interrupt.c" 1
  40 0004 30BF     		wfi
  41              	@ 0 "" 2
   6:../github/stm32/common/interrupt/src/Interrupt.c **** }
  42              		.loc 1 6 0
  43              		.thumb
  44              		.syntax unified
  45 0006 00BF     		nop
  46 0008 BD46     		mov	sp, r7
  47              	.LCFI2:
  48              		.cfi_def_cfa_register 13
  49              		@ sp needed
  50 000a 80BC     		pop	{r7}
  51              	.LCFI3:
ARM GAS  C:\Users\nvdun\AppData\Local\Temp\ccrp251B.s 			page 2


  52              		.cfi_restore 7
  53              		.cfi_def_cfa_offset 0
  54 000c 7047     		bx	lr
  55              		.cfi_endproc
  56              	.LFE0:
  57              		.size	NMIException, .-NMIException
  58              		.align	1
  59              		.global	HardFaultException
  60              		.syntax unified
  61              		.thumb
  62              		.thumb_func
  63              		.fpu softvfp
  64              		.type	HardFaultException, %function
  65              	HardFaultException:
  66              	.LFB1:
   7:../github/stm32/common/interrupt/src/Interrupt.c **** void HardFaultException(void)
   8:../github/stm32/common/interrupt/src/Interrupt.c **** {
  67              		.loc 1 8 0
  68              		.cfi_startproc
  69              		@ args = 0, pretend = 0, frame = 0
  70              		@ frame_needed = 1, uses_anonymous_args = 0
  71              		@ link register save eliminated.
  72 000e 80B4     		push	{r7}
  73              	.LCFI4:
  74              		.cfi_def_cfa_offset 4
  75              		.cfi_offset 7, -4
  76 0010 00AF     		add	r7, sp, #0
  77              	.LCFI5:
  78              		.cfi_def_cfa_register 7
   9:../github/stm32/common/interrupt/src/Interrupt.c ****   WFI;
  79              		.loc 1 9 0
  80              		.syntax unified
  81              	@ 9 "../github/stm32/common/interrupt/src/Interrupt.c" 1
  82 0012 30BF     		wfi
  83              	@ 0 "" 2
  10:../github/stm32/common/interrupt/src/Interrupt.c **** }
  84              		.loc 1 10 0
  85              		.thumb
  86              		.syntax unified
  87 0014 00BF     		nop
  88 0016 BD46     		mov	sp, r7
  89              	.LCFI6:
  90              		.cfi_def_cfa_register 13
  91              		@ sp needed
  92 0018 80BC     		pop	{r7}
  93              	.LCFI7:
  94              		.cfi_restore 7
  95              		.cfi_def_cfa_offset 0
  96 001a 7047     		bx	lr
  97              		.cfi_endproc
  98              	.LFE1:
  99              		.size	HardFaultException, .-HardFaultException
 100              		.align	1
 101              		.global	MemManageException
 102              		.syntax unified
 103              		.thumb
 104              		.thumb_func
ARM GAS  C:\Users\nvdun\AppData\Local\Temp\ccrp251B.s 			page 3


 105              		.fpu softvfp
 106              		.type	MemManageException, %function
 107              	MemManageException:
 108              	.LFB2:
  11:../github/stm32/common/interrupt/src/Interrupt.c **** void MemManageException(void)
  12:../github/stm32/common/interrupt/src/Interrupt.c **** {
 109              		.loc 1 12 0
 110              		.cfi_startproc
 111              		@ args = 0, pretend = 0, frame = 0
 112              		@ frame_needed = 1, uses_anonymous_args = 0
 113              		@ link register save eliminated.
 114 001c 80B4     		push	{r7}
 115              	.LCFI8:
 116              		.cfi_def_cfa_offset 4
 117              		.cfi_offset 7, -4
 118 001e 00AF     		add	r7, sp, #0
 119              	.LCFI9:
 120              		.cfi_def_cfa_register 7
  13:../github/stm32/common/interrupt/src/Interrupt.c ****   WFI;
 121              		.loc 1 13 0
 122              		.syntax unified
 123              	@ 13 "../github/stm32/common/interrupt/src/Interrupt.c" 1
 124 0020 30BF     		wfi
 125              	@ 0 "" 2
  14:../github/stm32/common/interrupt/src/Interrupt.c **** }
 126              		.loc 1 14 0
 127              		.thumb
 128              		.syntax unified
 129 0022 00BF     		nop
 130 0024 BD46     		mov	sp, r7
 131              	.LCFI10:
 132              		.cfi_def_cfa_register 13
 133              		@ sp needed
 134 0026 80BC     		pop	{r7}
 135              	.LCFI11:
 136              		.cfi_restore 7
 137              		.cfi_def_cfa_offset 0
 138 0028 7047     		bx	lr
 139              		.cfi_endproc
 140              	.LFE2:
 141              		.size	MemManageException, .-MemManageException
 142              		.align	1
 143              		.global	BusFaultException
 144              		.syntax unified
 145              		.thumb
 146              		.thumb_func
 147              		.fpu softvfp
 148              		.type	BusFaultException, %function
 149              	BusFaultException:
 150              	.LFB3:
  15:../github/stm32/common/interrupt/src/Interrupt.c **** void BusFaultException(void)
  16:../github/stm32/common/interrupt/src/Interrupt.c **** {
 151              		.loc 1 16 0
 152              		.cfi_startproc
 153              		@ args = 0, pretend = 0, frame = 0
 154              		@ frame_needed = 1, uses_anonymous_args = 0
 155              		@ link register save eliminated.
ARM GAS  C:\Users\nvdun\AppData\Local\Temp\ccrp251B.s 			page 4


 156 002a 80B4     		push	{r7}
 157              	.LCFI12:
 158              		.cfi_def_cfa_offset 4
 159              		.cfi_offset 7, -4
 160 002c 00AF     		add	r7, sp, #0
 161              	.LCFI13:
 162              		.cfi_def_cfa_register 7
  17:../github/stm32/common/interrupt/src/Interrupt.c ****   WFI;
 163              		.loc 1 17 0
 164              		.syntax unified
 165              	@ 17 "../github/stm32/common/interrupt/src/Interrupt.c" 1
 166 002e 30BF     		wfi
 167              	@ 0 "" 2
  18:../github/stm32/common/interrupt/src/Interrupt.c **** }
 168              		.loc 1 18 0
 169              		.thumb
 170              		.syntax unified
 171 0030 00BF     		nop
 172 0032 BD46     		mov	sp, r7
 173              	.LCFI14:
 174              		.cfi_def_cfa_register 13
 175              		@ sp needed
 176 0034 80BC     		pop	{r7}
 177              	.LCFI15:
 178              		.cfi_restore 7
 179              		.cfi_def_cfa_offset 0
 180 0036 7047     		bx	lr
 181              		.cfi_endproc
 182              	.LFE3:
 183              		.size	BusFaultException, .-BusFaultException
 184              		.align	1
 185              		.global	UsageFaultException
 186              		.syntax unified
 187              		.thumb
 188              		.thumb_func
 189              		.fpu softvfp
 190              		.type	UsageFaultException, %function
 191              	UsageFaultException:
 192              	.LFB4:
  19:../github/stm32/common/interrupt/src/Interrupt.c **** void UsageFaultException(void)
  20:../github/stm32/common/interrupt/src/Interrupt.c **** {
 193              		.loc 1 20 0
 194              		.cfi_startproc
 195              		@ args = 0, pretend = 0, frame = 0
 196              		@ frame_needed = 1, uses_anonymous_args = 0
 197              		@ link register save eliminated.
 198 0038 80B4     		push	{r7}
 199              	.LCFI16:
 200              		.cfi_def_cfa_offset 4
 201              		.cfi_offset 7, -4
 202 003a 00AF     		add	r7, sp, #0
 203              	.LCFI17:
 204              		.cfi_def_cfa_register 7
  21:../github/stm32/common/interrupt/src/Interrupt.c ****   WFI;
 205              		.loc 1 21 0
 206              		.syntax unified
 207              	@ 21 "../github/stm32/common/interrupt/src/Interrupt.c" 1
ARM GAS  C:\Users\nvdun\AppData\Local\Temp\ccrp251B.s 			page 5


 208 003c 30BF     		wfi
 209              	@ 0 "" 2
  22:../github/stm32/common/interrupt/src/Interrupt.c **** }
 210              		.loc 1 22 0
 211              		.thumb
 212              		.syntax unified
 213 003e 00BF     		nop
 214 0040 BD46     		mov	sp, r7
 215              	.LCFI18:
 216              		.cfi_def_cfa_register 13
 217              		@ sp needed
 218 0042 80BC     		pop	{r7}
 219              	.LCFI19:
 220              		.cfi_restore 7
 221              		.cfi_def_cfa_offset 0
 222 0044 7047     		bx	lr
 223              		.cfi_endproc
 224              	.LFE4:
 225              		.size	UsageFaultException, .-UsageFaultException
 226              		.align	1
 227              		.global	SVCHandler
 228              		.syntax unified
 229              		.thumb
 230              		.thumb_func
 231              		.fpu softvfp
 232              		.type	SVCHandler, %function
 233              	SVCHandler:
 234              	.LFB5:
  23:../github/stm32/common/interrupt/src/Interrupt.c **** void SVCHandler(void)
  24:../github/stm32/common/interrupt/src/Interrupt.c **** {
 235              		.loc 1 24 0
 236              		.cfi_startproc
 237              		@ args = 0, pretend = 0, frame = 0
 238              		@ frame_needed = 1, uses_anonymous_args = 0
 239              		@ link register save eliminated.
 240 0046 80B4     		push	{r7}
 241              	.LCFI20:
 242              		.cfi_def_cfa_offset 4
 243              		.cfi_offset 7, -4
 244 0048 00AF     		add	r7, sp, #0
 245              	.LCFI21:
 246              		.cfi_def_cfa_register 7
  25:../github/stm32/common/interrupt/src/Interrupt.c ****   WFI;
 247              		.loc 1 25 0
 248              		.syntax unified
 249              	@ 25 "../github/stm32/common/interrupt/src/Interrupt.c" 1
 250 004a 30BF     		wfi
 251              	@ 0 "" 2
  26:../github/stm32/common/interrupt/src/Interrupt.c **** }
 252              		.loc 1 26 0
 253              		.thumb
 254              		.syntax unified
 255 004c 00BF     		nop
 256 004e BD46     		mov	sp, r7
 257              	.LCFI22:
 258              		.cfi_def_cfa_register 13
 259              		@ sp needed
ARM GAS  C:\Users\nvdun\AppData\Local\Temp\ccrp251B.s 			page 6


 260 0050 80BC     		pop	{r7}
 261              	.LCFI23:
 262              		.cfi_restore 7
 263              		.cfi_def_cfa_offset 0
 264 0052 7047     		bx	lr
 265              		.cfi_endproc
 266              	.LFE5:
 267              		.size	SVCHandler, .-SVCHandler
 268              		.align	1
 269              		.global	DebugMonitor
 270              		.syntax unified
 271              		.thumb
 272              		.thumb_func
 273              		.fpu softvfp
 274              		.type	DebugMonitor, %function
 275              	DebugMonitor:
 276              	.LFB6:
  27:../github/stm32/common/interrupt/src/Interrupt.c **** void DebugMonitor(void)
  28:../github/stm32/common/interrupt/src/Interrupt.c **** {
 277              		.loc 1 28 0
 278              		.cfi_startproc
 279              		@ args = 0, pretend = 0, frame = 0
 280              		@ frame_needed = 1, uses_anonymous_args = 0
 281              		@ link register save eliminated.
 282 0054 80B4     		push	{r7}
 283              	.LCFI24:
 284              		.cfi_def_cfa_offset 4
 285              		.cfi_offset 7, -4
 286 0056 00AF     		add	r7, sp, #0
 287              	.LCFI25:
 288              		.cfi_def_cfa_register 7
  29:../github/stm32/common/interrupt/src/Interrupt.c ****   WFI;
 289              		.loc 1 29 0
 290              		.syntax unified
 291              	@ 29 "../github/stm32/common/interrupt/src/Interrupt.c" 1
 292 0058 30BF     		wfi
 293              	@ 0 "" 2
  30:../github/stm32/common/interrupt/src/Interrupt.c **** }
 294              		.loc 1 30 0
 295              		.thumb
 296              		.syntax unified
 297 005a 00BF     		nop
 298 005c BD46     		mov	sp, r7
 299              	.LCFI26:
 300              		.cfi_def_cfa_register 13
 301              		@ sp needed
 302 005e 80BC     		pop	{r7}
 303              	.LCFI27:
 304              		.cfi_restore 7
 305              		.cfi_def_cfa_offset 0
 306 0060 7047     		bx	lr
 307              		.cfi_endproc
 308              	.LFE6:
 309              		.size	DebugMonitor, .-DebugMonitor
 310              		.align	1
 311              		.global	PendSVC
 312              		.syntax unified
ARM GAS  C:\Users\nvdun\AppData\Local\Temp\ccrp251B.s 			page 7


 313              		.thumb
 314              		.thumb_func
 315              		.fpu softvfp
 316              		.type	PendSVC, %function
 317              	PendSVC:
 318              	.LFB7:
  31:../github/stm32/common/interrupt/src/Interrupt.c **** void PendSVC(void)
  32:../github/stm32/common/interrupt/src/Interrupt.c **** {
 319              		.loc 1 32 0
 320              		.cfi_startproc
 321              		@ args = 0, pretend = 0, frame = 0
 322              		@ frame_needed = 1, uses_anonymous_args = 0
 323              		@ link register save eliminated.
 324 0062 80B4     		push	{r7}
 325              	.LCFI28:
 326              		.cfi_def_cfa_offset 4
 327              		.cfi_offset 7, -4
 328 0064 00AF     		add	r7, sp, #0
 329              	.LCFI29:
 330              		.cfi_def_cfa_register 7
  33:../github/stm32/common/interrupt/src/Interrupt.c ****   WFI;
 331              		.loc 1 33 0
 332              		.syntax unified
 333              	@ 33 "../github/stm32/common/interrupt/src/Interrupt.c" 1
 334 0066 30BF     		wfi
 335              	@ 0 "" 2
  34:../github/stm32/common/interrupt/src/Interrupt.c **** }
 336              		.loc 1 34 0
 337              		.thumb
 338              		.syntax unified
 339 0068 00BF     		nop
 340 006a BD46     		mov	sp, r7
 341              	.LCFI30:
 342              		.cfi_def_cfa_register 13
 343              		@ sp needed
 344 006c 80BC     		pop	{r7}
 345              	.LCFI31:
 346              		.cfi_restore 7
 347              		.cfi_def_cfa_offset 0
 348 006e 7047     		bx	lr
 349              		.cfi_endproc
 350              	.LFE7:
 351              		.size	PendSVC, .-PendSVC
 352              		.align	1
 353              		.global	SysTickHandler
 354              		.syntax unified
 355              		.thumb
 356              		.thumb_func
 357              		.fpu softvfp
 358              		.type	SysTickHandler, %function
 359              	SysTickHandler:
 360              	.LFB8:
  35:../github/stm32/common/interrupt/src/Interrupt.c **** void SysTickHandler(void)
  36:../github/stm32/common/interrupt/src/Interrupt.c **** {
 361              		.loc 1 36 0
 362              		.cfi_startproc
 363              		@ args = 0, pretend = 0, frame = 0
ARM GAS  C:\Users\nvdun\AppData\Local\Temp\ccrp251B.s 			page 8


 364              		@ frame_needed = 1, uses_anonymous_args = 0
 365              		@ link register save eliminated.
 366 0070 80B4     		push	{r7}
 367              	.LCFI32:
 368              		.cfi_def_cfa_offset 4
 369              		.cfi_offset 7, -4
 370 0072 00AF     		add	r7, sp, #0
 371              	.LCFI33:
 372              		.cfi_def_cfa_register 7
  37:../github/stm32/common/interrupt/src/Interrupt.c ****   WFI;
 373              		.loc 1 37 0
 374              		.syntax unified
 375              	@ 37 "../github/stm32/common/interrupt/src/Interrupt.c" 1
 376 0074 30BF     		wfi
 377              	@ 0 "" 2
  38:../github/stm32/common/interrupt/src/Interrupt.c **** }
 378              		.loc 1 38 0
 379              		.thumb
 380              		.syntax unified
 381 0076 00BF     		nop
 382 0078 BD46     		mov	sp, r7
 383              	.LCFI34:
 384              		.cfi_def_cfa_register 13
 385              		@ sp needed
 386 007a 80BC     		pop	{r7}
 387              	.LCFI35:
 388              		.cfi_restore 7
 389              		.cfi_def_cfa_offset 0
 390 007c 7047     		bx	lr
 391              		.cfi_endproc
 392              	.LFE8:
 393              		.size	SysTickHandler, .-SysTickHandler
 394              		.align	1
 395              		.global	dummy_handler
 396              		.syntax unified
 397              		.thumb
 398              		.thumb_func
 399              		.fpu softvfp
 400              		.type	dummy_handler, %function
 401              	dummy_handler:
 402              	.LFB9:
  39:../github/stm32/common/interrupt/src/Interrupt.c **** void dummy_handler(void)
  40:../github/stm32/common/interrupt/src/Interrupt.c **** {
 403              		.loc 1 40 0
 404              		.cfi_startproc
 405              		@ args = 0, pretend = 0, frame = 0
 406              		@ frame_needed = 1, uses_anonymous_args = 0
 407              		@ link register save eliminated.
 408 007e 80B4     		push	{r7}
 409              	.LCFI36:
 410              		.cfi_def_cfa_offset 4
 411              		.cfi_offset 7, -4
 412 0080 00AF     		add	r7, sp, #0
 413              	.LCFI37:
 414              		.cfi_def_cfa_register 7
  41:../github/stm32/common/interrupt/src/Interrupt.c ****   WFI;
 415              		.loc 1 41 0
ARM GAS  C:\Users\nvdun\AppData\Local\Temp\ccrp251B.s 			page 9


 416              		.syntax unified
 417              	@ 41 "../github/stm32/common/interrupt/src/Interrupt.c" 1
 418 0082 30BF     		wfi
 419              	@ 0 "" 2
  42:../github/stm32/common/interrupt/src/Interrupt.c **** }
 420              		.loc 1 42 0
 421              		.thumb
 422              		.syntax unified
 423 0084 00BF     		nop
 424 0086 BD46     		mov	sp, r7
 425              	.LCFI38:
 426              		.cfi_def_cfa_register 13
 427              		@ sp needed
 428 0088 80BC     		pop	{r7}
 429              	.LCFI39:
 430              		.cfi_restore 7
 431              		.cfi_def_cfa_offset 0
 432 008a 7047     		bx	lr
 433              		.cfi_endproc
 434              	.LFE9:
 435              		.size	dummy_handler, .-dummy_handler
 436              	.Letext0:
 437              		.file 2 "../github/stm32/common/interrupt/include/Interrupt_VectorTable.h"
 438              		.section	.debug_info,"",%progbits
 439              	.Ldebug_info0:
 440 0000 4C010000 		.4byte	0x14c
 441 0004 0200     		.2byte	0x2
 442 0006 00000000 		.4byte	.Ldebug_abbrev0
 443 000a 04       		.byte	0x4
 444 000b 01       		.uleb128 0x1
 445 000c 26000000 		.4byte	.LASF12
 446 0010 0C       		.byte	0xc
 447 0011 B4000000 		.4byte	.LASF13
 448 0015 7D010000 		.4byte	.LASF14
 449 0019 00000000 		.4byte	.Ltext0
 450 001d 8C000000 		.4byte	.Letext0
 451 0021 00000000 		.4byte	.Ldebug_line0
 452 0025 02       		.uleb128 0x2
 453 0026 71010000 		.4byte	.LASF15
 454 002a 02       		.byte	0x2
 455 002b 04       		.byte	0x4
 456 002c 36000000 		.4byte	0x36
 457 0030 03       		.uleb128 0x3
 458 0031 04       		.byte	0x4
 459 0032 3B000000 		.4byte	0x3b
 460 0036 04       		.uleb128 0x4
 461 0037 30000000 		.4byte	0x30
 462 003b 05       		.uleb128 0x5
 463 003c 01       		.byte	0x1
 464 003d 06       		.uleb128 0x6
 465 003e 25000000 		.4byte	0x25
 466 0042 48000000 		.4byte	0x48
 467 0046 07       		.uleb128 0x7
 468 0047 00       		.byte	0
 469 0048 04       		.uleb128 0x4
 470 0049 3D000000 		.4byte	0x3d
 471 004d 08       		.uleb128 0x8
ARM GAS  C:\Users\nvdun\AppData\Local\Temp\ccrp251B.s 			page 10


 472 004e F2000000 		.4byte	.LASF0
 473 0052 02       		.byte	0x2
 474 0053 11       		.byte	0x11
 475 0054 48000000 		.4byte	0x48
 476 0058 01       		.byte	0x1
 477 0059 01       		.byte	0x1
 478 005a 08       		.uleb128 0x8
 479 005b 02010000 		.4byte	.LASF1
 480 005f 02       		.byte	0x2
 481 0060 13       		.byte	0x13
 482 0061 6E000000 		.4byte	0x6e
 483 0065 01       		.byte	0x1
 484 0066 01       		.byte	0x1
 485 0067 09       		.uleb128 0x9
 486 0068 04       		.byte	0x4
 487 0069 07       		.byte	0x7
 488 006a 0E000000 		.4byte	.LASF16
 489 006e 04       		.uleb128 0x4
 490 006f 67000000 		.4byte	0x67
 491 0073 0A       		.uleb128 0xa
 492 0074 01       		.byte	0x1
 493 0075 00000000 		.4byte	.LASF2
 494 0079 01       		.byte	0x1
 495 007a 27       		.byte	0x27
 496 007b 01       		.byte	0x1
 497 007c 7E000000 		.4byte	.LFB9
 498 0080 8C000000 		.4byte	.LFE9
 499 0084 00000000 		.4byte	.LLST9
 500 0088 01       		.byte	0x1
 501 0089 0A       		.uleb128 0xa
 502 008a 01       		.byte	0x1
 503 008b 62010000 		.4byte	.LASF3
 504 008f 01       		.byte	0x1
 505 0090 23       		.byte	0x23
 506 0091 01       		.byte	0x1
 507 0092 70000000 		.4byte	.LFB8
 508 0096 7E000000 		.4byte	.LFE8
 509 009a 44000000 		.4byte	.LLST8
 510 009e 01       		.byte	0x1
 511 009f 0A       		.uleb128 0xa
 512 00a0 01       		.byte	0x1
 513 00a1 35010000 		.4byte	.LASF4
 514 00a5 01       		.byte	0x1
 515 00a6 1F       		.byte	0x1f
 516 00a7 01       		.byte	0x1
 517 00a8 62000000 		.4byte	.LFB7
 518 00ac 70000000 		.4byte	.LFE7
 519 00b0 88000000 		.4byte	.LLST7
 520 00b4 01       		.byte	0x1
 521 00b5 0A       		.uleb128 0xa
 522 00b6 01       		.byte	0x1
 523 00b7 96010000 		.4byte	.LASF5
 524 00bb 01       		.byte	0x1
 525 00bc 1B       		.byte	0x1b
 526 00bd 01       		.byte	0x1
 527 00be 54000000 		.4byte	.LFB6
 528 00c2 62000000 		.4byte	.LFE6
ARM GAS  C:\Users\nvdun\AppData\Local\Temp\ccrp251B.s 			page 11


 529 00c6 CC000000 		.4byte	.LLST6
 530 00ca 01       		.byte	0x1
 531 00cb 0A       		.uleb128 0xa
 532 00cc 01       		.byte	0x1
 533 00cd 1B000000 		.4byte	.LASF6
 534 00d1 01       		.byte	0x1
 535 00d2 17       		.byte	0x17
 536 00d3 01       		.byte	0x1
 537 00d4 46000000 		.4byte	.LFB5
 538 00d8 54000000 		.4byte	.LFE5
 539 00dc 10010000 		.4byte	.LLST5
 540 00e0 01       		.byte	0x1
 541 00e1 0A       		.uleb128 0xa
 542 00e2 01       		.byte	0x1
 543 00e3 0E010000 		.4byte	.LASF7
 544 00e7 01       		.byte	0x1
 545 00e8 13       		.byte	0x13
 546 00e9 01       		.byte	0x1
 547 00ea 38000000 		.4byte	.LFB4
 548 00ee 46000000 		.4byte	.LFE4
 549 00f2 54010000 		.4byte	.LLST4
 550 00f6 01       		.byte	0x1
 551 00f7 0A       		.uleb128 0xa
 552 00f8 01       		.byte	0x1
 553 00f9 3D010000 		.4byte	.LASF8
 554 00fd 01       		.byte	0x1
 555 00fe 0F       		.byte	0xf
 556 00ff 01       		.byte	0x1
 557 0100 2A000000 		.4byte	.LFB3
 558 0104 38000000 		.4byte	.LFE3
 559 0108 98010000 		.4byte	.LLST3
 560 010c 01       		.byte	0x1
 561 010d 0A       		.uleb128 0xa
 562 010e 01       		.byte	0x1
 563 010f 22010000 		.4byte	.LASF9
 564 0113 01       		.byte	0x1
 565 0114 0B       		.byte	0xb
 566 0115 01       		.byte	0x1
 567 0116 1C000000 		.4byte	.LFB2
 568 011a 2A000000 		.4byte	.LFE2
 569 011e DC010000 		.4byte	.LLST2
 570 0122 01       		.byte	0x1
 571 0123 0A       		.uleb128 0xa
 572 0124 01       		.byte	0x1
 573 0125 4F010000 		.4byte	.LASF10
 574 0129 01       		.byte	0x1
 575 012a 07       		.byte	0x7
 576 012b 01       		.byte	0x1
 577 012c 0E000000 		.4byte	.LFB1
 578 0130 1C000000 		.4byte	.LFE1
 579 0134 20020000 		.4byte	.LLST1
 580 0138 01       		.byte	0x1
 581 0139 0A       		.uleb128 0xa
 582 013a 01       		.byte	0x1
 583 013b E5000000 		.4byte	.LASF11
 584 013f 01       		.byte	0x1
 585 0140 03       		.byte	0x3
ARM GAS  C:\Users\nvdun\AppData\Local\Temp\ccrp251B.s 			page 12


 586 0141 01       		.byte	0x1
 587 0142 00000000 		.4byte	.LFB0
 588 0146 0E000000 		.4byte	.LFE0
 589 014a 64020000 		.4byte	.LLST0
 590 014e 01       		.byte	0x1
 591 014f 00       		.byte	0
 592              		.section	.debug_abbrev,"",%progbits
 593              	.Ldebug_abbrev0:
 594 0000 01       		.uleb128 0x1
 595 0001 11       		.uleb128 0x11
 596 0002 01       		.byte	0x1
 597 0003 25       		.uleb128 0x25
 598 0004 0E       		.uleb128 0xe
 599 0005 13       		.uleb128 0x13
 600 0006 0B       		.uleb128 0xb
 601 0007 03       		.uleb128 0x3
 602 0008 0E       		.uleb128 0xe
 603 0009 1B       		.uleb128 0x1b
 604 000a 0E       		.uleb128 0xe
 605 000b 11       		.uleb128 0x11
 606 000c 01       		.uleb128 0x1
 607 000d 12       		.uleb128 0x12
 608 000e 01       		.uleb128 0x1
 609 000f 10       		.uleb128 0x10
 610 0010 06       		.uleb128 0x6
 611 0011 00       		.byte	0
 612 0012 00       		.byte	0
 613 0013 02       		.uleb128 0x2
 614 0014 16       		.uleb128 0x16
 615 0015 00       		.byte	0
 616 0016 03       		.uleb128 0x3
 617 0017 0E       		.uleb128 0xe
 618 0018 3A       		.uleb128 0x3a
 619 0019 0B       		.uleb128 0xb
 620 001a 3B       		.uleb128 0x3b
 621 001b 0B       		.uleb128 0xb
 622 001c 49       		.uleb128 0x49
 623 001d 13       		.uleb128 0x13
 624 001e 00       		.byte	0
 625 001f 00       		.byte	0
 626 0020 03       		.uleb128 0x3
 627 0021 0F       		.uleb128 0xf
 628 0022 00       		.byte	0
 629 0023 0B       		.uleb128 0xb
 630 0024 0B       		.uleb128 0xb
 631 0025 49       		.uleb128 0x49
 632 0026 13       		.uleb128 0x13
 633 0027 00       		.byte	0
 634 0028 00       		.byte	0
 635 0029 04       		.uleb128 0x4
 636 002a 26       		.uleb128 0x26
 637 002b 00       		.byte	0
 638 002c 49       		.uleb128 0x49
 639 002d 13       		.uleb128 0x13
 640 002e 00       		.byte	0
 641 002f 00       		.byte	0
 642 0030 05       		.uleb128 0x5
ARM GAS  C:\Users\nvdun\AppData\Local\Temp\ccrp251B.s 			page 13


 643 0031 15       		.uleb128 0x15
 644 0032 00       		.byte	0
 645 0033 27       		.uleb128 0x27
 646 0034 0C       		.uleb128 0xc
 647 0035 00       		.byte	0
 648 0036 00       		.byte	0
 649 0037 06       		.uleb128 0x6
 650 0038 01       		.uleb128 0x1
 651 0039 01       		.byte	0x1
 652 003a 49       		.uleb128 0x49
 653 003b 13       		.uleb128 0x13
 654 003c 01       		.uleb128 0x1
 655 003d 13       		.uleb128 0x13
 656 003e 00       		.byte	0
 657 003f 00       		.byte	0
 658 0040 07       		.uleb128 0x7
 659 0041 21       		.uleb128 0x21
 660 0042 00       		.byte	0
 661 0043 00       		.byte	0
 662 0044 00       		.byte	0
 663 0045 08       		.uleb128 0x8
 664 0046 34       		.uleb128 0x34
 665 0047 00       		.byte	0
 666 0048 03       		.uleb128 0x3
 667 0049 0E       		.uleb128 0xe
 668 004a 3A       		.uleb128 0x3a
 669 004b 0B       		.uleb128 0xb
 670 004c 3B       		.uleb128 0x3b
 671 004d 0B       		.uleb128 0xb
 672 004e 49       		.uleb128 0x49
 673 004f 13       		.uleb128 0x13
 674 0050 3F       		.uleb128 0x3f
 675 0051 0C       		.uleb128 0xc
 676 0052 3C       		.uleb128 0x3c
 677 0053 0C       		.uleb128 0xc
 678 0054 00       		.byte	0
 679 0055 00       		.byte	0
 680 0056 09       		.uleb128 0x9
 681 0057 24       		.uleb128 0x24
 682 0058 00       		.byte	0
 683 0059 0B       		.uleb128 0xb
 684 005a 0B       		.uleb128 0xb
 685 005b 3E       		.uleb128 0x3e
 686 005c 0B       		.uleb128 0xb
 687 005d 03       		.uleb128 0x3
 688 005e 0E       		.uleb128 0xe
 689 005f 00       		.byte	0
 690 0060 00       		.byte	0
 691 0061 0A       		.uleb128 0xa
 692 0062 2E       		.uleb128 0x2e
 693 0063 00       		.byte	0
 694 0064 3F       		.uleb128 0x3f
 695 0065 0C       		.uleb128 0xc
 696 0066 03       		.uleb128 0x3
 697 0067 0E       		.uleb128 0xe
 698 0068 3A       		.uleb128 0x3a
 699 0069 0B       		.uleb128 0xb
ARM GAS  C:\Users\nvdun\AppData\Local\Temp\ccrp251B.s 			page 14


 700 006a 3B       		.uleb128 0x3b
 701 006b 0B       		.uleb128 0xb
 702 006c 27       		.uleb128 0x27
 703 006d 0C       		.uleb128 0xc
 704 006e 11       		.uleb128 0x11
 705 006f 01       		.uleb128 0x1
 706 0070 12       		.uleb128 0x12
 707 0071 01       		.uleb128 0x1
 708 0072 40       		.uleb128 0x40
 709 0073 06       		.uleb128 0x6
 710 0074 9742     		.uleb128 0x2117
 711 0076 0C       		.uleb128 0xc
 712 0077 00       		.byte	0
 713 0078 00       		.byte	0
 714 0079 00       		.byte	0
 715              		.section	.debug_loc,"",%progbits
 716              	.Ldebug_loc0:
 717              	.LLST9:
 718 0000 7E000000 		.4byte	.LFB9-.Ltext0
 719 0004 80000000 		.4byte	.LCFI36-.Ltext0
 720 0008 0200     		.2byte	0x2
 721 000a 7D       		.byte	0x7d
 722 000b 00       		.sleb128 0
 723 000c 80000000 		.4byte	.LCFI36-.Ltext0
 724 0010 82000000 		.4byte	.LCFI37-.Ltext0
 725 0014 0200     		.2byte	0x2
 726 0016 7D       		.byte	0x7d
 727 0017 04       		.sleb128 4
 728 0018 82000000 		.4byte	.LCFI37-.Ltext0
 729 001c 88000000 		.4byte	.LCFI38-.Ltext0
 730 0020 0200     		.2byte	0x2
 731 0022 77       		.byte	0x77
 732 0023 04       		.sleb128 4
 733 0024 88000000 		.4byte	.LCFI38-.Ltext0
 734 0028 8A000000 		.4byte	.LCFI39-.Ltext0
 735 002c 0200     		.2byte	0x2
 736 002e 7D       		.byte	0x7d
 737 002f 04       		.sleb128 4
 738 0030 8A000000 		.4byte	.LCFI39-.Ltext0
 739 0034 8C000000 		.4byte	.LFE9-.Ltext0
 740 0038 0200     		.2byte	0x2
 741 003a 7D       		.byte	0x7d
 742 003b 00       		.sleb128 0
 743 003c 00000000 		.4byte	0
 744 0040 00000000 		.4byte	0
 745              	.LLST8:
 746 0044 70000000 		.4byte	.LFB8-.Ltext0
 747 0048 72000000 		.4byte	.LCFI32-.Ltext0
 748 004c 0200     		.2byte	0x2
 749 004e 7D       		.byte	0x7d
 750 004f 00       		.sleb128 0
 751 0050 72000000 		.4byte	.LCFI32-.Ltext0
 752 0054 74000000 		.4byte	.LCFI33-.Ltext0
 753 0058 0200     		.2byte	0x2
 754 005a 7D       		.byte	0x7d
 755 005b 04       		.sleb128 4
 756 005c 74000000 		.4byte	.LCFI33-.Ltext0
ARM GAS  C:\Users\nvdun\AppData\Local\Temp\ccrp251B.s 			page 15


 757 0060 7A000000 		.4byte	.LCFI34-.Ltext0
 758 0064 0200     		.2byte	0x2
 759 0066 77       		.byte	0x77
 760 0067 04       		.sleb128 4
 761 0068 7A000000 		.4byte	.LCFI34-.Ltext0
 762 006c 7C000000 		.4byte	.LCFI35-.Ltext0
 763 0070 0200     		.2byte	0x2
 764 0072 7D       		.byte	0x7d
 765 0073 04       		.sleb128 4
 766 0074 7C000000 		.4byte	.LCFI35-.Ltext0
 767 0078 7E000000 		.4byte	.LFE8-.Ltext0
 768 007c 0200     		.2byte	0x2
 769 007e 7D       		.byte	0x7d
 770 007f 00       		.sleb128 0
 771 0080 00000000 		.4byte	0
 772 0084 00000000 		.4byte	0
 773              	.LLST7:
 774 0088 62000000 		.4byte	.LFB7-.Ltext0
 775 008c 64000000 		.4byte	.LCFI28-.Ltext0
 776 0090 0200     		.2byte	0x2
 777 0092 7D       		.byte	0x7d
 778 0093 00       		.sleb128 0
 779 0094 64000000 		.4byte	.LCFI28-.Ltext0
 780 0098 66000000 		.4byte	.LCFI29-.Ltext0
 781 009c 0200     		.2byte	0x2
 782 009e 7D       		.byte	0x7d
 783 009f 04       		.sleb128 4
 784 00a0 66000000 		.4byte	.LCFI29-.Ltext0
 785 00a4 6C000000 		.4byte	.LCFI30-.Ltext0
 786 00a8 0200     		.2byte	0x2
 787 00aa 77       		.byte	0x77
 788 00ab 04       		.sleb128 4
 789 00ac 6C000000 		.4byte	.LCFI30-.Ltext0
 790 00b0 6E000000 		.4byte	.LCFI31-.Ltext0
 791 00b4 0200     		.2byte	0x2
 792 00b6 7D       		.byte	0x7d
 793 00b7 04       		.sleb128 4
 794 00b8 6E000000 		.4byte	.LCFI31-.Ltext0
 795 00bc 70000000 		.4byte	.LFE7-.Ltext0
 796 00c0 0200     		.2byte	0x2
 797 00c2 7D       		.byte	0x7d
 798 00c3 00       		.sleb128 0
 799 00c4 00000000 		.4byte	0
 800 00c8 00000000 		.4byte	0
 801              	.LLST6:
 802 00cc 54000000 		.4byte	.LFB6-.Ltext0
 803 00d0 56000000 		.4byte	.LCFI24-.Ltext0
 804 00d4 0200     		.2byte	0x2
 805 00d6 7D       		.byte	0x7d
 806 00d7 00       		.sleb128 0
 807 00d8 56000000 		.4byte	.LCFI24-.Ltext0
 808 00dc 58000000 		.4byte	.LCFI25-.Ltext0
 809 00e0 0200     		.2byte	0x2
 810 00e2 7D       		.byte	0x7d
 811 00e3 04       		.sleb128 4
 812 00e4 58000000 		.4byte	.LCFI25-.Ltext0
 813 00e8 5E000000 		.4byte	.LCFI26-.Ltext0
ARM GAS  C:\Users\nvdun\AppData\Local\Temp\ccrp251B.s 			page 16


 814 00ec 0200     		.2byte	0x2
 815 00ee 77       		.byte	0x77
 816 00ef 04       		.sleb128 4
 817 00f0 5E000000 		.4byte	.LCFI26-.Ltext0
 818 00f4 60000000 		.4byte	.LCFI27-.Ltext0
 819 00f8 0200     		.2byte	0x2
 820 00fa 7D       		.byte	0x7d
 821 00fb 04       		.sleb128 4
 822 00fc 60000000 		.4byte	.LCFI27-.Ltext0
 823 0100 62000000 		.4byte	.LFE6-.Ltext0
 824 0104 0200     		.2byte	0x2
 825 0106 7D       		.byte	0x7d
 826 0107 00       		.sleb128 0
 827 0108 00000000 		.4byte	0
 828 010c 00000000 		.4byte	0
 829              	.LLST5:
 830 0110 46000000 		.4byte	.LFB5-.Ltext0
 831 0114 48000000 		.4byte	.LCFI20-.Ltext0
 832 0118 0200     		.2byte	0x2
 833 011a 7D       		.byte	0x7d
 834 011b 00       		.sleb128 0
 835 011c 48000000 		.4byte	.LCFI20-.Ltext0
 836 0120 4A000000 		.4byte	.LCFI21-.Ltext0
 837 0124 0200     		.2byte	0x2
 838 0126 7D       		.byte	0x7d
 839 0127 04       		.sleb128 4
 840 0128 4A000000 		.4byte	.LCFI21-.Ltext0
 841 012c 50000000 		.4byte	.LCFI22-.Ltext0
 842 0130 0200     		.2byte	0x2
 843 0132 77       		.byte	0x77
 844 0133 04       		.sleb128 4
 845 0134 50000000 		.4byte	.LCFI22-.Ltext0
 846 0138 52000000 		.4byte	.LCFI23-.Ltext0
 847 013c 0200     		.2byte	0x2
 848 013e 7D       		.byte	0x7d
 849 013f 04       		.sleb128 4
 850 0140 52000000 		.4byte	.LCFI23-.Ltext0
 851 0144 54000000 		.4byte	.LFE5-.Ltext0
 852 0148 0200     		.2byte	0x2
 853 014a 7D       		.byte	0x7d
 854 014b 00       		.sleb128 0
 855 014c 00000000 		.4byte	0
 856 0150 00000000 		.4byte	0
 857              	.LLST4:
 858 0154 38000000 		.4byte	.LFB4-.Ltext0
 859 0158 3A000000 		.4byte	.LCFI16-.Ltext0
 860 015c 0200     		.2byte	0x2
 861 015e 7D       		.byte	0x7d
 862 015f 00       		.sleb128 0
 863 0160 3A000000 		.4byte	.LCFI16-.Ltext0
 864 0164 3C000000 		.4byte	.LCFI17-.Ltext0
 865 0168 0200     		.2byte	0x2
 866 016a 7D       		.byte	0x7d
 867 016b 04       		.sleb128 4
 868 016c 3C000000 		.4byte	.LCFI17-.Ltext0
 869 0170 42000000 		.4byte	.LCFI18-.Ltext0
 870 0174 0200     		.2byte	0x2
ARM GAS  C:\Users\nvdun\AppData\Local\Temp\ccrp251B.s 			page 17


 871 0176 77       		.byte	0x77
 872 0177 04       		.sleb128 4
 873 0178 42000000 		.4byte	.LCFI18-.Ltext0
 874 017c 44000000 		.4byte	.LCFI19-.Ltext0
 875 0180 0200     		.2byte	0x2
 876 0182 7D       		.byte	0x7d
 877 0183 04       		.sleb128 4
 878 0184 44000000 		.4byte	.LCFI19-.Ltext0
 879 0188 46000000 		.4byte	.LFE4-.Ltext0
 880 018c 0200     		.2byte	0x2
 881 018e 7D       		.byte	0x7d
 882 018f 00       		.sleb128 0
 883 0190 00000000 		.4byte	0
 884 0194 00000000 		.4byte	0
 885              	.LLST3:
 886 0198 2A000000 		.4byte	.LFB3-.Ltext0
 887 019c 2C000000 		.4byte	.LCFI12-.Ltext0
 888 01a0 0200     		.2byte	0x2
 889 01a2 7D       		.byte	0x7d
 890 01a3 00       		.sleb128 0
 891 01a4 2C000000 		.4byte	.LCFI12-.Ltext0
 892 01a8 2E000000 		.4byte	.LCFI13-.Ltext0
 893 01ac 0200     		.2byte	0x2
 894 01ae 7D       		.byte	0x7d
 895 01af 04       		.sleb128 4
 896 01b0 2E000000 		.4byte	.LCFI13-.Ltext0
 897 01b4 34000000 		.4byte	.LCFI14-.Ltext0
 898 01b8 0200     		.2byte	0x2
 899 01ba 77       		.byte	0x77
 900 01bb 04       		.sleb128 4
 901 01bc 34000000 		.4byte	.LCFI14-.Ltext0
 902 01c0 36000000 		.4byte	.LCFI15-.Ltext0
 903 01c4 0200     		.2byte	0x2
 904 01c6 7D       		.byte	0x7d
 905 01c7 04       		.sleb128 4
 906 01c8 36000000 		.4byte	.LCFI15-.Ltext0
 907 01cc 38000000 		.4byte	.LFE3-.Ltext0
 908 01d0 0200     		.2byte	0x2
 909 01d2 7D       		.byte	0x7d
 910 01d3 00       		.sleb128 0
 911 01d4 00000000 		.4byte	0
 912 01d8 00000000 		.4byte	0
 913              	.LLST2:
 914 01dc 1C000000 		.4byte	.LFB2-.Ltext0
 915 01e0 1E000000 		.4byte	.LCFI8-.Ltext0
 916 01e4 0200     		.2byte	0x2
 917 01e6 7D       		.byte	0x7d
 918 01e7 00       		.sleb128 0
 919 01e8 1E000000 		.4byte	.LCFI8-.Ltext0
 920 01ec 20000000 		.4byte	.LCFI9-.Ltext0
 921 01f0 0200     		.2byte	0x2
 922 01f2 7D       		.byte	0x7d
 923 01f3 04       		.sleb128 4
 924 01f4 20000000 		.4byte	.LCFI9-.Ltext0
 925 01f8 26000000 		.4byte	.LCFI10-.Ltext0
 926 01fc 0200     		.2byte	0x2
 927 01fe 77       		.byte	0x77
ARM GAS  C:\Users\nvdun\AppData\Local\Temp\ccrp251B.s 			page 18


 928 01ff 04       		.sleb128 4
 929 0200 26000000 		.4byte	.LCFI10-.Ltext0
 930 0204 28000000 		.4byte	.LCFI11-.Ltext0
 931 0208 0200     		.2byte	0x2
 932 020a 7D       		.byte	0x7d
 933 020b 04       		.sleb128 4
 934 020c 28000000 		.4byte	.LCFI11-.Ltext0
 935 0210 2A000000 		.4byte	.LFE2-.Ltext0
 936 0214 0200     		.2byte	0x2
 937 0216 7D       		.byte	0x7d
 938 0217 00       		.sleb128 0
 939 0218 00000000 		.4byte	0
 940 021c 00000000 		.4byte	0
 941              	.LLST1:
 942 0220 0E000000 		.4byte	.LFB1-.Ltext0
 943 0224 10000000 		.4byte	.LCFI4-.Ltext0
 944 0228 0200     		.2byte	0x2
 945 022a 7D       		.byte	0x7d
 946 022b 00       		.sleb128 0
 947 022c 10000000 		.4byte	.LCFI4-.Ltext0
 948 0230 12000000 		.4byte	.LCFI5-.Ltext0
 949 0234 0200     		.2byte	0x2
 950 0236 7D       		.byte	0x7d
 951 0237 04       		.sleb128 4
 952 0238 12000000 		.4byte	.LCFI5-.Ltext0
 953 023c 18000000 		.4byte	.LCFI6-.Ltext0
 954 0240 0200     		.2byte	0x2
 955 0242 77       		.byte	0x77
 956 0243 04       		.sleb128 4
 957 0244 18000000 		.4byte	.LCFI6-.Ltext0
 958 0248 1A000000 		.4byte	.LCFI7-.Ltext0
 959 024c 0200     		.2byte	0x2
 960 024e 7D       		.byte	0x7d
 961 024f 04       		.sleb128 4
 962 0250 1A000000 		.4byte	.LCFI7-.Ltext0
 963 0254 1C000000 		.4byte	.LFE1-.Ltext0
 964 0258 0200     		.2byte	0x2
 965 025a 7D       		.byte	0x7d
 966 025b 00       		.sleb128 0
 967 025c 00000000 		.4byte	0
 968 0260 00000000 		.4byte	0
 969              	.LLST0:
 970 0264 00000000 		.4byte	.LFB0-.Ltext0
 971 0268 02000000 		.4byte	.LCFI0-.Ltext0
 972 026c 0200     		.2byte	0x2
 973 026e 7D       		.byte	0x7d
 974 026f 00       		.sleb128 0
 975 0270 02000000 		.4byte	.LCFI0-.Ltext0
 976 0274 04000000 		.4byte	.LCFI1-.Ltext0
 977 0278 0200     		.2byte	0x2
 978 027a 7D       		.byte	0x7d
 979 027b 04       		.sleb128 4
 980 027c 04000000 		.4byte	.LCFI1-.Ltext0
 981 0280 0A000000 		.4byte	.LCFI2-.Ltext0
 982 0284 0200     		.2byte	0x2
 983 0286 77       		.byte	0x77
 984 0287 04       		.sleb128 4
ARM GAS  C:\Users\nvdun\AppData\Local\Temp\ccrp251B.s 			page 19


 985 0288 0A000000 		.4byte	.LCFI2-.Ltext0
 986 028c 0C000000 		.4byte	.LCFI3-.Ltext0
 987 0290 0200     		.2byte	0x2
 988 0292 7D       		.byte	0x7d
 989 0293 04       		.sleb128 4
 990 0294 0C000000 		.4byte	.LCFI3-.Ltext0
 991 0298 0E000000 		.4byte	.LFE0-.Ltext0
 992 029c 0200     		.2byte	0x2
 993 029e 7D       		.byte	0x7d
 994 029f 00       		.sleb128 0
 995 02a0 00000000 		.4byte	0
 996 02a4 00000000 		.4byte	0
 997              		.section	.debug_aranges,"",%progbits
 998 0000 1C000000 		.4byte	0x1c
 999 0004 0200     		.2byte	0x2
 1000 0006 00000000 		.4byte	.Ldebug_info0
 1001 000a 04       		.byte	0x4
 1002 000b 00       		.byte	0
 1003 000c 0000     		.2byte	0
 1004 000e 0000     		.2byte	0
 1005 0010 00000000 		.4byte	.Ltext0
 1006 0014 8C000000 		.4byte	.Letext0-.Ltext0
 1007 0018 00000000 		.4byte	0
 1008 001c 00000000 		.4byte	0
 1009              		.section	.debug_line,"",%progbits
 1010              	.Ldebug_line0:
 1011 0000 BB000000 		.section	.debug_str,"MS",%progbits,1
 1011      02008B00 
 1011      00000201 
 1011      FB0E0D00 
 1011      01010101 
 1012              	.LASF2:
 1013 0000 64756D6D 		.ascii	"dummy_handler\000"
 1013      795F6861 
 1013      6E646C65 
 1013      7200
 1014              	.LASF16:
 1015 000e 756E7369 		.ascii	"unsigned int\000"
 1015      676E6564 
 1015      20696E74 
 1015      00
 1016              	.LASF6:
 1017 001b 53564348 		.ascii	"SVCHandler\000"
 1017      616E646C 
 1017      657200
 1018              	.LASF12:
 1019 0026 474E5520 		.ascii	"GNU C11 7.2.1 20170904 (release) [ARM/embedded-7-br"
 1019      43313120 
 1019      372E322E 
 1019      31203230 
 1019      31373039 
 1020 0059 616E6368 		.ascii	"anch revision 255204] -mcpu=cortex-m4 -mthumb -mapc"
 1020      20726576 
 1020      6973696F 
 1020      6E203235 
 1020      35323034 
 1021 008c 732D6672 		.ascii	"s-frame -mthumb-interwork -gdwarf-2 -O0\000"
ARM GAS  C:\Users\nvdun\AppData\Local\Temp\ccrp251B.s 			page 20


 1021      616D6520 
 1021      2D6D7468 
 1021      756D622D 
 1021      696E7465 
 1022              	.LASF13:
 1023 00b4 2E2E2F67 		.ascii	"../github/stm32/common/interrupt/src/Interrupt.c\000"
 1023      69746875 
 1023      622F7374 
 1023      6D33322F 
 1023      636F6D6D 
 1024              	.LASF11:
 1025 00e5 4E4D4945 		.ascii	"NMIException\000"
 1025      78636570 
 1025      74696F6E 
 1025      00
 1026              	.LASF0:
 1027 00f2 65786365 		.ascii	"exception_table\000"
 1027      7074696F 
 1027      6E5F7461 
 1027      626C6500 
 1028              	.LASF1:
 1029 0102 5F555345 		.ascii	"_USER_STACK\000"
 1029      525F5354 
 1029      41434B00 
 1030              	.LASF7:
 1031 010e 55736167 		.ascii	"UsageFaultException\000"
 1031      65466175 
 1031      6C744578 
 1031      63657074 
 1031      696F6E00 
 1032              	.LASF9:
 1033 0122 4D656D4D 		.ascii	"MemManageException\000"
 1033      616E6167 
 1033      65457863 
 1033      65707469 
 1033      6F6E00
 1034              	.LASF4:
 1035 0135 50656E64 		.ascii	"PendSVC\000"
 1035      53564300 
 1036              	.LASF8:
 1037 013d 42757346 		.ascii	"BusFaultException\000"
 1037      61756C74 
 1037      45786365 
 1037      7074696F 
 1037      6E00
 1038              	.LASF10:
 1039 014f 48617264 		.ascii	"HardFaultException\000"
 1039      4661756C 
 1039      74457863 
 1039      65707469 
 1039      6F6E00
 1040              	.LASF3:
 1041 0162 53797354 		.ascii	"SysTickHandler\000"
 1041      69636B48 
 1041      616E646C 
 1041      657200
 1042              	.LASF15:
ARM GAS  C:\Users\nvdun\AppData\Local\Temp\ccrp251B.s 			page 21


 1043 0171 45786563 		.ascii	"ExecFuncPtr\000"
 1043      46756E63 
 1043      50747200 
 1044              	.LASF14:
 1045 017d 443A5C54 		.ascii	"D:\\Tool\\Workspace\\Sample\000"
 1045      6F6F6C5C 
 1045      576F726B 
 1045      73706163 
 1045      655C5361 
 1046              	.LASF5:
 1047 0196 44656275 		.ascii	"DebugMonitor\000"
 1047      674D6F6E 
 1047      69746F72 
 1047      00
 1048              		.ident	"GCC: (GNU Tools for Arm Embedded Processors 7-2017-q4-major) 7.2.1 20170904 (release) [ARM
ARM GAS  C:\Users\nvdun\AppData\Local\Temp\ccrp251B.s 			page 22


DEFINED SYMBOLS
                            *ABS*:00000000 Interrupt.c
C:\Users\nvdun\AppData\Local\Temp\ccrp251B.s:15     .text:00000000 $t
C:\Users\nvdun\AppData\Local\Temp\ccrp251B.s:22     .text:00000000 NMIException
C:\Users\nvdun\AppData\Local\Temp\ccrp251B.s:65     .text:0000000e HardFaultException
C:\Users\nvdun\AppData\Local\Temp\ccrp251B.s:107    .text:0000001c MemManageException
C:\Users\nvdun\AppData\Local\Temp\ccrp251B.s:149    .text:0000002a BusFaultException
C:\Users\nvdun\AppData\Local\Temp\ccrp251B.s:191    .text:00000038 UsageFaultException
C:\Users\nvdun\AppData\Local\Temp\ccrp251B.s:233    .text:00000046 SVCHandler
C:\Users\nvdun\AppData\Local\Temp\ccrp251B.s:275    .text:00000054 DebugMonitor
C:\Users\nvdun\AppData\Local\Temp\ccrp251B.s:317    .text:00000062 PendSVC
C:\Users\nvdun\AppData\Local\Temp\ccrp251B.s:359    .text:00000070 SysTickHandler
C:\Users\nvdun\AppData\Local\Temp\ccrp251B.s:401    .text:0000007e dummy_handler

NO UNDEFINED SYMBOLS
