ARM GAS  C:\Users\nvdun\AppData\Local\Temp\ccrp251B.s 			page 1


   1              		.cpu cortex-m4
   2              		.eabi_attribute 20, 1
   3              		.eabi_attribute 21, 1
   4              		.eabi_attribute 23, 3
   5              		.eabi_attribute 24, 1
   6              		.eabi_attribute 25, 1
   7              		.eabi_attribute 26, 1
   8              		.eabi_attribute 30, 6
   9              		.eabi_attribute 34, 1
  10              		.eabi_attribute 18, 4
  11              		.file	"Interrupt.c"
  12              		.text
  13              	.Ltext0:
  14              		.cfi_sections	.debug_frame
  15              		.align	1
  16              		.global	NMIException
  17              		.syntax unified
  18              		.thumb
  19              		.thumb_func
  20              		.fpu softvfp
  21              		.type	NMIException, %function
  22              	NMIException:
  23              	.LFB0:
  24              		.file 1 "../github/stm32/common/interrupt/src/Interrupt.c"
   1:../github/stm32/common/interrupt/src/Interrupt.c **** #include "Interrupt.h"
   2:../github/stm32/common/interrupt/src/Interrupt.c **** 
   3:../github/stm32/common/interrupt/src/Interrupt.c **** void NMIException(void)
   4:../github/stm32/common/interrupt/src/Interrupt.c **** {
  25              		.loc 1 4 0
  26              		.cfi_startproc
  27              		@ args = 0, pretend = 0, frame = 0
  28              		@ frame_needed = 1, uses_anonymous_args = 0
  29              		@ link register save eliminated.
  30 0000 80B4     		push	{r7}
  31              	.LCFI0:
  32              		.cfi_def_cfa_offset 4
  33              		.cfi_offset 7, -4
  34 0002 00AF     		add	r7, sp, #0
  35              	.LCFI1:
  36              		.cfi_def_cfa_register 7
   5:../github/stm32/common/interrupt/src/Interrupt.c ****   WFI;
  37              		.loc 1 5 0
  38              		.syntax unified
  39              	@ 5 "../github/stm32/common/interrupt/src/Interrupt.c" 1
  40 0004 30BF     		wfi
  41              	@ 0 "" 2
   6:../github/stm32/common/interrupt/src/Interrupt.c **** }
  42              		.loc 1 6 0
  43              		.thumb
  44              		.syntax unified
  45 0006 00BF     		nop
  46 0008 BD46     		mov	sp, r7
  47              	.LCFI2:
  48              		.cfi_def_cfa_register 13
  49              		@ sp needed
  50 000a 80BC     		pop	{r7}
  51              	.LCFI3:
ARM GAS  C:\Users\nvdun\AppData\Local\Temp\ccrp251B.s 			page 2


  52              		.cfi_restore 7
  53              		.cfi_def_cfa_offset 0
  54 000c 7047     		bx	lr
  55              		.cfi_endproc
  56              	.LFE0:
  57              		.size	NMIException, .-NMIException
  58              		.align	1
  59              		.global	HardFaultException
  60              		.syntax unified
  61              		.thumb
  62              		.thumb_func
  63              		.fpu softvfp
  64              		.type	HardFaultException, %function
  65              	HardFaultException:
  66              	.LFB1:
   7:../github/stm32/common/interrupt/src/Interrupt.c **** void HardFaultException(void)
   8:../github/stm32/common/interrupt/src/Interrupt.c **** {
  67              		.loc 1 8 0
  68              		.cfi_startproc
  69              		@ args = 0, pretend = 0, frame = 0
  70              		@ frame_needed = 1, uses_anonymous_args = 0
  71              		@ link register save eliminated.
  72 000e 80B4     		push	{r7}
  73              	.LCFI4:
  74              		.cfi_def_cfa_offset 4
  75              		.cfi_offset 7, -4
  76 0010 00AF     		add	r7, sp, #0
  77              	.LCFI5:
  78              		.cfi_def_cfa_register 7
   9:../github/stm32/common/interrupt/src/Interrupt.c ****   WFI;
  79              		.loc 1 9 0
  80              		.syntax unified
  81              	@ 9 "../github/stm32/common/interrupt/src/Interrupt.c" 1
  82 0012 30BF     		wfi
  83              	@ 0 "" 2
  10:../github/stm32/common/interrupt/src/Interrupt.c **** }
  84              		.loc 1 10 0
  85              		.thumb
  86              		.syntax unified
  87 0014 00BF     		nop
  88 0016 BD46     		mov	sp, r7
  89              	.LCFI6:
  90              		.cfi_def_cfa_register 13
  91              		@ sp needed
  92 0018 80BC     		pop	{r7}
  93              	.LCFI7:
  94              		.cfi_restore 7
  95              		.cfi_def_cfa_offset 0
  96 001a 7047     		bx	lr
  97              		.cfi_endproc
  98              	.LFE1:
  99              		.size	HardFaultException, .-HardFaultException
 100              		.align	1
 101              		.global	MemManageException
 102              		.syntax unified
 103              		.thumb
 104              		.thumb_func
ARM GAS  C:\Users\nvdun\AppData\Local\Temp\ccrp251B.s 			page 3


 105              		.fpu softvfp
 106              		.type	MemManageException, %function
 107              	MemManageException:
 108              	.LFB2:
  11:../github/stm32/common/interrupt/src/Interrupt.c **** void MemManageException(void)
  12:../github/stm32/common/interrupt/src/Interrupt.c **** {
 109              		.loc 1 12 0
 110              		.cfi_startproc
 111              		@ args = 0, pretend = 0, frame = 0
 112              		@ frame_needed = 1, uses_anonymous_args = 0
 113              		@ link register save eliminated.
 114 001c 80B4     		push	{r7}
 115              	.LCFI8:
 116              		.cfi_def_cfa_offset 4
 117              		.cfi_offset 7, -4
 118 001e 00AF     		add	r7, sp, #0
 119              	.LCFI9:
 120              		.cfi_def_cfa_register 7
  13:../github/stm32/common/interrupt/src/Interrupt.c ****   WFI;
 121              		.loc 1 13 0
 122              		.syntax unified
 123              	@ 13 "../github/stm32/common/interrupt/src/Interrupt.c" 1
 124 0020 30BF     		wfi
 125              	@ 0 "" 2
  14:../github/stm32/common/interrupt/src/Interrupt.c **** }
 126              		.loc 1 14 0
 127              		.thumb
 128              		.syntax unified
 129 0022 00BF     		nop
 130 0024 BD46     		mov	sp, r7
 131              	.LCFI10:
 132              		.cfi_def_cfa_register 13
 133              		@ sp needed
 134 0026 80BC     		pop	{r7}
 135              	.LCFI11:
 136              		.cfi_restore 7
 137              		.cfi_def_cfa_offset 0
 138 0028 7047     		bx	lr
 139              		.cfi_endproc
 140              	.LFE2:
 141              		.size	MemManageException, .-MemManageException
 142              		.align	1
 143              		.global	BusFaultException
 144              		.syntax unified
 145              		.thumb
 146              		.thumb_func
 147              		.fpu softvfp
 148              		.type	BusFaultException, %function
 149              	BusFaultException:
 150              	.LFB3:
  15:../github/stm32/common/interrupt/src/Interrupt.c **** void BusFaultException(void)
  16:../github/stm32/common/interrupt/src/Interrupt.c **** {
 151              		.loc 1 16 0
 152              		.cfi_startproc
 153              		@ args = 0, pretend = 0, frame = 0
 154              		@ frame_needed = 1, uses_anonymous_args = 0
 155              		@ link register save eliminated.
ARM GAS  C:\Users\nvdun\AppData\Local\Temp\ccrp251B.s 			page 4


 156 002a 80B4     		push	{r7}
 157              	.LCFI12:
 158              		.cfi_def_cfa_offset 4
 159              		.cfi_offset 7, -4
 160 002c 00AF     		add	r7, sp, #0
 161              	.LCFI13:
 162              		.cfi_def_cfa_register 7
  17:../github/stm32/common/interrupt/src/Interrupt.c ****   WFI;
 163              		.loc 1 17 0
 164              		.syntax unified
 165              	@ 17 "../github/stm32/common/interrupt/src/Interrupt.c" 1
 166 002e 30BF     		wfi
 167              	@ 0 "" 2
  18:../github/stm32/common/interrupt/src/Interrupt.c **** }
 168              		.loc 1 18 0
 169              		.thumb
 170              		.syntax unified
 171 0030 00BF     		nop
 172 0032 BD46     		mov	sp, r7
 173              	.LCFI14:
 174              		.cfi_def_cfa_register 13
 175              		@ sp needed
 176 0034 80BC     		pop	{r7}
 177              	.LCFI15:
 178              		.cfi_restore 7
 179              		.cfi_def_cfa_offset 0
 180 0036 7047     		bx	lr
 181              		.cfi_endproc
 182              	.LFE3:
 183              		.size	BusFaultException, .-BusFaultException
 184              		.align	1
 185              		.global	UsageFaultException
 186              		.syntax unified
 187              		.thumb
 188              		.thumb_func
 189              		.fpu softvfp
 190              		.type	UsageFaultException, %function
 191              	UsageFaultException:
 192              	.LFB4:
  19:../github/stm32/common/interrupt/src/Interrupt.c **** void UsageFaultException(void)
  20:../github/stm32/common/interrupt/src/Interrupt.c **** {
 193              		.loc 1 20 0
 194              		.cfi_startproc
 195              		@ args = 0, pretend = 0, frame = 0
 196              		@ frame_needed = 1, uses_anonymous_args = 0
 197              		@ link register save eliminated.
 198 0038 80B4     		push	{r7}
 199              	.LCFI16:
 200              		.cfi_def_cfa_offset 4
 201              		.cfi_offset 7, -4
 202 003a 00AF     		add	r7, sp, #0
 203              	.LCFI17:
 204              		.cfi_def_cfa_register 7
  21:../github/stm32/common/interrupt/src/Interrupt.c ****   WFI;
 205              		.loc 1 21 0
 206              		.syntax unified
 207              	@ 21 "../github/stm32/common/interrupt/src/Interrupt.c" 1
ARM GAS  C:\Users\nvdun\AppData\Local\Temp\ccrp251B.s 			page 5


 208 003c 30BF     		wfi
 209              	@ 0 "" 2
  22:../github/stm32/common/interrupt/src/Interrupt.c **** }
 210              		.loc 1 22 0
 211              		.thumb
 212              		.syntax unified
 213 003e 00BF     		nop
 214 0040 BD46     		mov	sp, r7
 215              	.LCFI18:
 216              		.cfi_def_cfa_register 13
 217              		@ sp needed
 218 0042 80BC     		pop	{r7}
 219              	.LCFI19:
 220              		.cfi_restore 7
 221              		.cfi_def_cfa_offset 0
 222 0044 7047     		bx	lr
 223              		.cfi_endproc
 224              	.LFE4:
 225              		.size	UsageFaultException, .-UsageFaultException
 226              		.align	1
 227              		.global	SVCHandler
 228              		.syntax unified
 229              		.thumb
 230              		.thumb_func
 231              		.fpu softvfp
 232              		.type	SVCHandler, %function
 233              	SVCHandler:
 234              	.LFB5:
  23:../github/stm32/common/interrupt/src/Interrupt.c **** void SVCHandler(void)
  24:../github/stm32/common/interrupt/src/Interrupt.c **** {
 235              		.loc 1 24 0
 236              		.cfi_startproc
 237              		@ args = 0, pretend = 0, frame = 0
 238              		@ frame_needed = 1, uses_anonymous_args = 0
 239              		@ link register save eliminated.
 240 0046 80B4     		push	{r7}
 241              	.LCFI20:
 242              		.cfi_def_cfa_offset 4
 243              		.cfi_offset 7, -4
 244 0048 00AF     		add	r7, sp, #0
 245              	.LCFI21:
 246              		.cfi_def_cfa_register 7
  25:../github/stm32/common/interrupt/src/Interrupt.c ****   WFI;
 247              		.loc 1 25 0
 248              		.syntax unified
 249              	@ 25 "../github/stm32/common/interrupt/src/Interrupt.c" 1
 250 004a 30BF     		wfi
 251              	@ 0 "" 2
  26:../github/stm32/common/interrupt/src/Interrupt.c **** }
 252              		.loc 1 26 0
 253              		.thumb
 254              		.syntax unified
 255 004c 00BF     		nop
 256 004e BD46     		mov	sp, r7
 257              	.LCFI22:
 258              		.cfi_def_cfa_register 13
 259              		@ sp needed
ARM GAS  C:\Users\nvdun\AppData\Local\Temp\ccrp251B.s 			page 6


 260 0050 80BC     		pop	{r7}
 261              	.LCFI23:
 262              		.cfi_restore 7
 263              		.cfi_def_cfa_offset 0
 264 0052 7047     		bx	lr
 265              		.cfi_endproc
 266              	.LFE5:
 267              		.size	SVCHandler, .-SVCHandler
 268              		.align	1
 269              		.global	DebugMonitor
 270              		.syntax unified
 271              		.thumb
 272              		.thumb_func
 273              		.fpu softvfp
 274              		.type	DebugMonitor, %function
 275              	DebugMonitor:
 276              	.LFB6:
  27:../github/stm32/common/interrupt/src/Interrupt.c **** void DebugMonitor(void)
  28:../github/stm32/common/interrupt/src/Interrupt.c **** {
 277              		.loc 1 28 0
 278              		.cfi_startproc
 279              		@ args = 0, pretend = 0, frame = 0
 280              		@ frame_needed = 1, uses_anonymous_args = 0
 281              		@ link register save eliminated.
 282 0054 80B4     		push	{r7}
 283              	.LCFI24:
 284              		.cfi_def_cfa_offset 4
 285              		.cfi_offset 7, -4
 286 0056 00AF     		add	r7, sp, #0
 287              	.LCFI25:
 288              		.cfi_def_cfa_register 7
  29:../github/stm32/common/interrupt/src/Interrupt.c ****   WFI;
 289              		.loc 1 29 0
 290              		.syntax unified
 291              	@ 29 "../github/stm32/common/interrupt/src/Interrupt.c" 1
 292 0058 30BF     		wfi
 293              	@ 0 "" 2
  30:../github/stm32/common/interrupt/src/Interrupt.c **** }
 294              		.loc 1 30 0
 295              		.thumb
 296              		.syntax unified
 297 005a 00BF     		nop
 298 005c BD46     		mov	sp, r7
 299              	.LCFI26:
 300              		.cfi_def_cfa_register 13
 301              		@ sp needed
 302 005e 80BC     		pop	{r7}
 303              	.LCFI27:
 304              		.cfi_restore 7
 305              		.cfi_def_cfa_offset 0
 306 0060 7047     		bx	lr
 307              		.cfi_endproc
 308              	.LFE6:
 309              		.size	DebugMonitor, .-DebugMonitor
 310              		.align	1
 311              		.global	PendSVC
 312              		.syntax unified
ARM GAS  C:\Users\nvdun\AppData\Local\Temp\ccrp251B.s 			page 7


 313              		.thumb
 314              		.thumb_func
 315              		.fpu softvfp
 316              		.type	PendSVC, %function
 317              	PendSVC:
 318              	.LFB7:
  31:../github/stm32/common/interrupt/src/Interrupt.c **** void PendSVC(void)
  32:../github/stm32/common/interrupt/src/Interrupt.c **** {
 319              		.loc 1 32 0
 320              		.cfi_startproc
 321              		@ args = 0, pretend = 0, frame = 0
 322              		@ frame_needed = 1, uses_anonymous_args = 0
 323              		@ link register save eliminated.
 324 0062 80B4     		push	{r7}
 325              	.LCFI28:
 326              		.cfi_def_cfa_offset 4
 327              		.cfi_offset 7, -4
 328 0064 00AF     		add	r7, sp, #0
 329              	.LCFI29:
 330              		.cfi_def_cfa_register 7
  33:../github/stm32/common/interrupt/src/Interrupt.c ****   WFI;
 331              		.loc 1 33 0
 332              		.syntax unified
 333              	@ 33 "../github/stm32/common/interrupt/src/Interrupt.c" 1
 334 0066 30BF     		wfi
 335              	@ 0 "" 2
  34:../github/stm32/common/interrupt/src/Interrupt.c **** }
 336              		.loc 1 34 0
 337              		.thumb
 338              		.syntax unified
 339 0068 00BF     		nop
 340 006a BD46     		mov	sp, r7
 341              	.LCFI30:
 342              		.cfi_def_cfa_register 13
 343              		@ sp needed
 344 006c 80BC     		pop	{r7}
 345              	.LCFI31:
 346              		.cfi_restore 7
 347              		.cfi_def_cfa_offset 0
 348 006e 7047     		bx	lr
 349              		.cfi_endproc
 350              	.LFE7:
 351              		.size	PendSVC, .-PendSVC
 352              		.align	1
 353              		.global	SysTickHandler
 354              		.syntax unified
 355              		.thumb
 356              		.thumb_func
 357              		.fpu softvfp
 358              		.type	SysTickHandler, %function
 359              	SysTickHandler:
 360              	.LFB8:
  35:../github/stm32/common/interrupt/src/Interrupt.c **** void SysTickHandler(void)
  36:../github/stm32/common/interrupt/src/Interrupt.c **** {
 361              		.loc 1 36 0
 362              		.cfi_startproc
 363              		@ args = 0, pretend = 0, frame = 0
ARM GAS  C:\Users\nvdun\AppData\Local\Temp\ccrp251B.s 			page 8


 364              		@ frame_needed = 1, uses_anonymous_args = 0
 365              		@ link register save eliminated.
 366 0070 80B4     		push	{r7}
 367              	.LCFI32:
 368              		.cfi_def_cfa_offset 4
 369              		.cfi_offset 7, -4
 370 0072 00AF     		add	r7, sp, #0
 371              	.LCFI33:
 372              		.cfi_def_cfa_register 7
  37:../github/stm32/common/interrupt/src/Interrupt.c ****   WFI;
 373              		.loc 1 37 0
 374              		.syntax unified
 375              	@ 37 "../github/stm32/common/interrupt/src/Interrupt.c" 1
 376 0074 30BF     		wfi
 377              	@ 0 "" 2
  38:../github/stm32/common/interrupt/src/Interrupt.c **** }
 378              		.loc 1 38 0
 379              		.thumb
 380              		.syntax unified
 381 0076 00BF     		nop
 382 0078 BD46     		mov	sp, r7
 383              	.LCFI34:
 384              		.cfi_def_cfa_register 13
 385              		@ sp needed
 386 007a 80BC     		pop	{r7}
 387              	.LCFI35:
 388              		.cfi_restore 7
 389              		.cfi_def_cfa_offset 0
 390 007c 7047     		bx	lr
 391              		.cfi_endproc
 392              	.LFE8:
 393              		.size	SysTickHandler, .-SysTickHandler
 394              		.align	1
 395              		.global	dummy_handler
 396              		.syntax unified
 397              		.thumb
 398              		.thumb_func
 399              		.fpu softvfp
 400              		.type	dummy_handler, %function
 401              	dummy_handler:
 402              	.LFB9:
  39:../github/stm32/common/interrupt/src/Interrupt.c **** void dummy_handler(void)
  40:../github/stm32/common/interrupt/src/Interrupt.c **** {
 403              		.loc 1 40 0
 404              		.cfi_startproc
 405              		@ args = 0, pretend = 0, frame = 0
 406              		@ frame_needed = 1, uses_anonymous_args = 0
 407              		@ link register save eliminated.
 408 007e 80B4     		push	{r7}
 409              	.LCFI36:
 410              		.cfi_def_cfa_offset 4
 411              		.cfi_offset 7, -4
 412 0080 00AF     		add	r7, sp, #0
 413              	.LCFI37:
 414              		.cfi_def_cfa_register 7
  41:../github/stm32/common/interrupt/src/Interrupt.c ****   WFI;
 415              		.loc 1 41 0
ARM GAS  C:\Users\nvdun\AppData\Local\Temp\ccrp251B.s 			page 9


 416              		.syntax unified
 417              	@ 41 "../github/stm32/common/interrupt/src/Interrupt.c" 1
 418 0082 30BF     		wfi
 419              	@ 0 "" 2
  42:../github/stm32/common/interrupt/src/Interrupt.c **** }
 420              		.loc 1 42 0
 421              		.thumb
 422              		.syntax unified
 423 0084 00BF     		nop
 424 0086 BD46     		mov	sp, r7
 425              	.LCFI38:
 426              		.cfi_def_cfa_register 13
 427              		@ sp needed
 428 0088 80BC     		pop	{r7}
 429              	.LCFI39:
 430              		.cfi_restore 7
 431              		.cfi_def_cfa_offset 0
 432 008a 7047     		bx	lr
 433              		.cfi_endproc
 434              	.LFE9:
 435              		.size	dummy_handler, .-dummy_handler
 436              	.Letext0:
 437              		.file 2 "../github/stm32/common/interrupt/include/Interrupt_VectorTable.h"