ARM GAS  C:\Users\nvdun\AppData\Local\Temp\cchqhv9l.s 			page 1


   1              		.cpu cortex-m4
   2              		.eabi_attribute 20, 1
   3              		.eabi_attribute 21, 1
   4              		.eabi_attribute 23, 3
   5              		.eabi_attribute 24, 1
   6              		.eabi_attribute 25, 1
   7              		.eabi_attribute 26, 1
   8              		.eabi_attribute 30, 6
   9              		.eabi_attribute 34, 1
  10              		.eabi_attribute 18, 4
  11              		.file	"SampleApp.c"
  12              		.text
  13              	.Ltext0:
  14              		.cfi_sections	.debug_frame
  15              		.global	arr
  16              		.data
  17              		.align	2
  18              		.type	arr, %object
  19              		.size	arr, 4
  20              	arr:
  21 0000 01       		.byte	1
  22 0001 02       		.byte	2
  23 0002 03       		.byte	3
  24 0003 04       		.byte	4
  25              		.global	mylist
  26              		.align	2
  27              		.type	mylist, %object
  28              		.size	mylist, 12
  29              	mylist:
  30 0004 00000000 		.word	0
  31 0008 00000000 		.word	arr
  32 000c 00000000 		.word	0
  33              		.section	.rodata
  34              		.align	2
  35              	.LC0:
  36 0000 02000000 		.word	2
  37 0004 02000000 		.word	2
  38              		.text
  39              		.align	1
  40              		.global	main
  41              		.syntax unified
  42              		.thumb
  43              		.thumb_func
  44              		.fpu softvfp
  45              		.type	main, %function
  46              	main:
  47              	.LFB0:
  48              		.file 1 "source/SampleApp.c"
   1:source/SampleApp.c **** #include "SampleApp.h"
   2:source/SampleApp.c **** #include "Can.h"
   3:source/SampleApp.c **** 
   4:source/SampleApp.c **** typedef struct List_STag
   5:source/SampleApp.c **** {
   6:source/SampleApp.c ****   struct List_STag *_pre;
   7:source/SampleApp.c ****   void *data_ptr;
   8:source/SampleApp.c ****   struct List_STag *_next;
   9:source/SampleApp.c **** } List;
ARM GAS  C:\Users\nvdun\AppData\Local\Temp\cchqhv9l.s 			page 2


  10:source/SampleApp.c **** #define number \\
  11:source/SampleApp.c **** 3
  12:source/SampleApp.c **** 
  13:source/SampleApp.c **** uint8 arr[4] = {1, 2, 3, 4};
  14:source/SampleApp.c **** List mylist =
  15:source/SampleApp.c **** {
  16:source/SampleApp.c ****   NULL_PTR,
  17:source/SampleApp.c ****   arr,
  18:source/SampleApp.c ****   NULL_PTR
  19:source/SampleApp.c **** };
  20:source/SampleApp.c **** Std_ReturnType add_list(List* ele);
  21:source/SampleApp.c **** 
  22:source/SampleApp.c **** int main(void)
  23:source/SampleApp.c **** {
  49              		.loc 1 23 0
  50              		.cfi_startproc
  51              		@ args = 0, pretend = 0, frame = 24
  52              		@ frame_needed = 1, uses_anonymous_args = 0
  53 0000 80B5     		push	{r7, lr}
  54              	.LCFI0:
  55              		.cfi_def_cfa_offset 8
  56              		.cfi_offset 7, -8
  57              		.cfi_offset 14, -4
  58 0002 86B0     		sub	sp, sp, #24
  59              	.LCFI1:
  60              		.cfi_def_cfa_offset 32
  61 0004 00AF     		add	r7, sp, #0
  62              	.LCFI2:
  63              		.cfi_def_cfa_register 7
  24:source/SampleApp.c ****   List newEle;
  25:source/SampleApp.c ****   uint32 LucVar[2] = {2,2};
  64              		.loc 1 25 0
  65 0006 154A     		ldr	r2, .L7
  66 0008 3B1D     		adds	r3, r7, #4
  67 000a 92E80300 		ldm	r2, {r0, r1}
  68 000e 83E80300 		stm	r3, {r0, r1}
  26:source/SampleApp.c ****   newEle.data_ptr =\
  69              		.loc 1 26 0
  70 0012 3B1D     		adds	r3, r7, #4
  71 0014 3B61     		str	r3, [r7, #16]
  27:source/SampleApp.c ****   /*
  28:source/SampleApp.c ****   khjgkjh*/
  29:source/SampleApp.c ****   LucVar;
  30:source/SampleApp.c ****   add_list(&newEle);
  72              		.loc 1 30 0
  73 0016 07F10C03 		add	r3, r7, #12
  74 001a 1846     		mov	r0, r3
  75 001c FFF7FEFF 		bl	add_list
  31:source/SampleApp.c ****   arr[0] = 0xFF;
  76              		.loc 1 31 0
  77 0020 0F4B     		ldr	r3, .L7+4
  78 0022 FF22     		movs	r2, #255
  79 0024 1A70     		strb	r2, [r3]
  32:source/SampleApp.c ****   if (arr[1] == 1)
  80              		.loc 1 32 0
  81 0026 0E4B     		ldr	r3, .L7+4
  82 0028 5B78     		ldrb	r3, [r3, #1]	@ zero_extendqisi2
ARM GAS  C:\Users\nvdun\AppData\Local\Temp\cchqhv9l.s 			page 3


  83 002a 012B     		cmp	r3, #1
  84 002c 03D1     		bne	.L2
  33:source/SampleApp.c ****     arr[2] = 0;
  85              		.loc 1 33 0
  86 002e 0C4B     		ldr	r3, .L7+4
  87 0030 0022     		movs	r2, #0
  88 0032 9A70     		strb	r2, [r3, #2]
  89 0034 02E0     		b	.L3
  90              	.L2:
  34:source/SampleApp.c ****   else arr[3] = 0;
  91              		.loc 1 34 0
  92 0036 0A4B     		ldr	r3, .L7+4
  93 0038 0022     		movs	r2, #0
  94 003a DA70     		strb	r2, [r3, #3]
  95              	.L3:
  35:source/SampleApp.c ****   Can_Init(NULL_PTR);
  96              		.loc 1 35 0
  97 003c 0020     		movs	r0, #0
  98 003e FFF7FEFF 		bl	Can_Init
  36:source/SampleApp.c ****   switch (arr[0])
  99              		.loc 1 36 0
 100 0042 074B     		ldr	r3, .L7+4
 101 0044 1B78     		ldrb	r3, [r3]	@ zero_extendqisi2
 102 0046 012B     		cmp	r3, #1
 103 0048 06D1     		bne	.L4
  37:source/SampleApp.c ****     case (1):
  38:source/SampleApp.c ****     {
  39:source/SampleApp.c ****       arr[2] = 0;
 104              		.loc 1 39 0
 105 004a 054B     		ldr	r3, .L7+4
 106 004c 0022     		movs	r2, #0
 107 004e 9A70     		strb	r2, [r3, #2]
  40:source/SampleApp.c ****       arr[3] = 0;
 108              		.loc 1 40 0
 109 0050 034B     		ldr	r3, .L7+4
 110 0052 0022     		movs	r2, #0
 111 0054 DA70     		strb	r2, [r3, #3]
  41:source/SampleApp.c ****       break;
 112              		.loc 1 41 0
 113 0056 00BF     		nop
 114              	.L4:
 115              	.L6:
  42:source/SampleApp.c ****     }
  43:source/SampleApp.c ****   for(;;)
 116              		.loc 1 43 0 discriminator 1
 117 0058 FEE7     		b	.L6
 118              	.L8:
 119 005a 00BF     		.align	2
 120              	.L7:
 121 005c 00000000 		.word	.LC0
 122 0060 00000000 		.word	arr
 123              		.cfi_endproc
 124              	.LFE0:
 125              		.size	main, .-main
 126              		.align	1
 127              		.global	add_list
 128              		.syntax unified
ARM GAS  C:\Users\nvdun\AppData\Local\Temp\cchqhv9l.s 			page 4


 129              		.thumb
 130              		.thumb_func
 131              		.fpu softvfp
 132              		.type	add_list, %function
 133              	add_list:
 134              	.LFB1:
  44:source/SampleApp.c ****   {
  45:source/SampleApp.c ****     
  46:source/SampleApp.c ****   }
  47:source/SampleApp.c ****   return 0;
  48:source/SampleApp.c **** }
  49:source/SampleApp.c **** 
  50:source/SampleApp.c **** Std_ReturnType add_list(List* ele)
  51:source/SampleApp.c **** {
 135              		.loc 1 51 0
 136              		.cfi_startproc
 137              		@ args = 0, pretend = 0, frame = 8
 138              		@ frame_needed = 1, uses_anonymous_args = 0
 139              		@ link register save eliminated.
 140 0064 80B4     		push	{r7}
 141              	.LCFI3:
 142              		.cfi_def_cfa_offset 4
 143              		.cfi_offset 7, -4
 144 0066 83B0     		sub	sp, sp, #12
 145              	.LCFI4:
 146              		.cfi_def_cfa_offset 16
 147 0068 00AF     		add	r7, sp, #0
 148              	.LCFI5:
 149              		.cfi_def_cfa_register 7
 150 006a 7860     		str	r0, [r7, #4]
  52:source/SampleApp.c ****   mylist._next = ele;
 151              		.loc 1 52 0
 152 006c 054A     		ldr	r2, .L11
 153 006e 7B68     		ldr	r3, [r7, #4]
 154 0070 9360     		str	r3, [r2, #8]
  53:source/SampleApp.c ****   ele->_pre = &mylist;
 155              		.loc 1 53 0
 156 0072 7B68     		ldr	r3, [r7, #4]
 157 0074 034A     		ldr	r2, .L11
 158 0076 1A60     		str	r2, [r3]
  54:source/SampleApp.c ****   return E_OK;
 159              		.loc 1 54 0
 160 0078 0023     		movs	r3, #0
  55:source/SampleApp.c **** }
 161              		.loc 1 55 0
 162 007a 1846     		mov	r0, r3
 163 007c 0C37     		adds	r7, r7, #12
 164              	.LCFI6:
 165              		.cfi_def_cfa_offset 4
 166 007e BD46     		mov	sp, r7
 167              	.LCFI7:
 168              		.cfi_def_cfa_register 13
 169              		@ sp needed
 170 0080 80BC     		pop	{r7}
 171              	.LCFI8:
 172              		.cfi_restore 7
 173              		.cfi_def_cfa_offset 0
ARM GAS  C:\Users\nvdun\AppData\Local\Temp\cchqhv9l.s 			page 5


 174 0082 7047     		bx	lr
 175              	.L12:
 176              		.align	2
 177              	.L11:
 178 0084 00000000 		.word	mylist
 179              		.cfi_endproc
 180              	.LFE1:
 181              		.size	add_list, .-add_list
 182              		.align	1
 183              		.global	System_Init
 184              		.syntax unified
 185              		.thumb
 186              		.thumb_func
 187              		.fpu softvfp
 188              		.type	System_Init, %function
 189              	System_Init:
 190              	.LFB2:
  56:source/SampleApp.c **** 
  57:source/SampleApp.c **** void System_Init(void)
  58:source/SampleApp.c **** {
 191              		.loc 1 58 0
 192              		.cfi_startproc
 193              		@ args = 0, pretend = 0, frame = 0
 194              		@ frame_needed = 1, uses_anonymous_args = 0
 195              		@ link register save eliminated.
 196 0088 80B4     		push	{r7}
 197              	.LCFI9:
 198              		.cfi_def_cfa_offset 4
 199              		.cfi_offset 7, -4
 200 008a 00AF     		add	r7, sp, #0
 201              	.LCFI10:
 202              		.cfi_def_cfa_register 7
  59:source/SampleApp.c ****   arr[0] = 0xFF;
 203              		.loc 1 59 0
 204 008c 034B     		ldr	r3, .L14
 205 008e FF22     		movs	r2, #255
 206 0090 1A70     		strb	r2, [r3]
  60:source/SampleApp.c **** }
 207              		.loc 1 60 0
 208 0092 00BF     		nop
 209 0094 BD46     		mov	sp, r7
 210              	.LCFI11:
 211              		.cfi_def_cfa_register 13
 212              		@ sp needed
 213 0096 80BC     		pop	{r7}
 214              	.LCFI12:
 215              		.cfi_restore 7
 216              		.cfi_def_cfa_offset 0
 217 0098 7047     		bx	lr
 218              	.L15:
 219 009a 00BF     		.align	2
 220              	.L14:
 221 009c 00000000 		.word	arr
 222              		.cfi_endproc
 223              	.LFE2:
 224              		.size	System_Init, .-System_Init
 225              	.Letext0:
ARM GAS  C:\Users\nvdun\AppData\Local\Temp\cchqhv9l.s 			page 6


 226              		.file 2 "../github/stm32/common/platform/include/Platform_Types.h"
 227              		.file 3 "../github/stm32/common/standard/include/Std_Types.h"
 228              		.file 4 "../github/stm32/common/stub/CanGeneral/include/Can_GeneralTypes.h"
 229              		.file 5 "../github/stm32/common/stub/EcuM/include/EcuM.h"
 230              		.file 6 "../github/stm32/modules/CAN/include/Can_Types.h"
 231              		.file 7 "../github/stm32/modules/CAN/include/Can_PBTypes.h"
 232              		.file 8 "../github/stm32/modules/CAN/include/Can_PCTypes.h"
 233              		.file 9 "../github/stm32/modules/CAN/include/Can.h"