ARM GAS  C:\Users\nvdun\AppData\Local\Temp\cchqhv9l.s 			page 1


   1              		.cpu cortex-m4
   2              		.eabi_attribute 20, 1
   3              		.eabi_attribute 21, 1
   4              		.eabi_attribute 23, 3
   5              		.eabi_attribute 24, 1
   6              		.eabi_attribute 25, 1
   7              		.eabi_attribute 26, 1
   8              		.eabi_attribute 30, 6
   9              		.eabi_attribute 34, 1
  10              		.eabi_attribute 18, 4
  11              		.file	"SampleApp.c"
  12              		.text
  13              	.Ltext0:
  14              		.cfi_sections	.debug_frame
  15              		.global	arr
  16              		.data
  17              		.align	2
  18              		.type	arr, %object
  19              		.size	arr, 4
  20              	arr:
  21 0000 01       		.byte	1
  22 0001 02       		.byte	2
  23 0002 03       		.byte	3
  24 0003 04       		.byte	4
  25              		.global	mylist
  26              		.align	2
  27              		.type	mylist, %object
  28              		.size	mylist, 12
  29              	mylist:
  30 0004 00000000 		.word	0
  31 0008 00000000 		.word	arr
  32 000c 00000000 		.word	0
  33              		.section	.rodata
  34              		.align	2
  35              	.LC0:
  36 0000 02000000 		.word	2
  37 0004 02000000 		.word	2
  38              		.text
  39              		.align	1
  40              		.global	main
  41              		.syntax unified
  42              		.thumb
  43              		.thumb_func
  44              		.fpu softvfp
  45              		.type	main, %function
  46              	main:
  47              	.LFB0:
  48              		.file 1 "source/SampleApp.c"
   1:source/SampleApp.c **** #include "SampleApp.h"
   2:source/SampleApp.c **** #include "Can.h"
   3:source/SampleApp.c **** 
   4:source/SampleApp.c **** typedef struct List_STag
   5:source/SampleApp.c **** {
   6:source/SampleApp.c ****   struct List_STag *_pre;
   7:source/SampleApp.c ****   void *data_ptr;
   8:source/SampleApp.c ****   struct List_STag *_next;
   9:source/SampleApp.c **** } List;
ARM GAS  C:\Users\nvdun\AppData\Local\Temp\cchqhv9l.s 			page 2


  10:source/SampleApp.c **** #define number \\
  11:source/SampleApp.c **** 3
  12:source/SampleApp.c **** 
  13:source/SampleApp.c **** uint8 arr[4] = {1, 2, 3, 4};
  14:source/SampleApp.c **** List mylist =
  15:source/SampleApp.c **** {
  16:source/SampleApp.c ****   NULL_PTR,
  17:source/SampleApp.c ****   arr,
  18:source/SampleApp.c ****   NULL_PTR
  19:source/SampleApp.c **** };
  20:source/SampleApp.c **** Std_ReturnType add_list(List* ele);
  21:source/SampleApp.c **** 
  22:source/SampleApp.c **** int main(void)
  23:source/SampleApp.c **** {
  49              		.loc 1 23 0
  50              		.cfi_startproc
  51              		@ args = 0, pretend = 0, frame = 24
  52              		@ frame_needed = 1, uses_anonymous_args = 0
  53 0000 80B5     		push	{r7, lr}
  54              	.LCFI0:
  55              		.cfi_def_cfa_offset 8
  56              		.cfi_offset 7, -8
  57              		.cfi_offset 14, -4
  58 0002 86B0     		sub	sp, sp, #24
  59              	.LCFI1:
  60              		.cfi_def_cfa_offset 32
  61 0004 00AF     		add	r7, sp, #0
  62              	.LCFI2:
  63              		.cfi_def_cfa_register 7
  24:source/SampleApp.c ****   List newEle;
  25:source/SampleApp.c ****   uint32 LucVar[2] = {2,2};
  64              		.loc 1 25 0
  65 0006 154A     		ldr	r2, .L7
  66 0008 3B1D     		adds	r3, r7, #4
  67 000a 92E80300 		ldm	r2, {r0, r1}
  68 000e 83E80300 		stm	r3, {r0, r1}
  26:source/SampleApp.c ****   newEle.data_ptr =\
  69              		.loc 1 26 0
  70 0012 3B1D     		adds	r3, r7, #4
  71 0014 3B61     		str	r3, [r7, #16]
  27:source/SampleApp.c ****   /*
  28:source/SampleApp.c ****   khjgkjh*/
  29:source/SampleApp.c ****   LucVar;
  30:source/SampleApp.c ****   add_list(&newEle);
  72              		.loc 1 30 0
  73 0016 07F10C03 		add	r3, r7, #12
  74 001a 1846     		mov	r0, r3
  75 001c FFF7FEFF 		bl	add_list
  31:source/SampleApp.c ****   arr[0] = 0xFF;
  76              		.loc 1 31 0
  77 0020 0F4B     		ldr	r3, .L7+4
  78 0022 FF22     		movs	r2, #255
  79 0024 1A70     		strb	r2, [r3]
  32:source/SampleApp.c ****   if (arr[1] == 1)
  80              		.loc 1 32 0
  81 0026 0E4B     		ldr	r3, .L7+4
  82 0028 5B78     		ldrb	r3, [r3, #1]	@ zero_extendqisi2
ARM GAS  C:\Users\nvdun\AppData\Local\Temp\cchqhv9l.s 			page 3


  83 002a 012B     		cmp	r3, #1
  84 002c 03D1     		bne	.L2
  33:source/SampleApp.c ****     arr[2] = 0;
  85              		.loc 1 33 0
  86 002e 0C4B     		ldr	r3, .L7+4
  87 0030 0022     		movs	r2, #0
  88 0032 9A70     		strb	r2, [r3, #2]
  89 0034 02E0     		b	.L3
  90              	.L2:
  34:source/SampleApp.c ****   else arr[3] = 0;
  91              		.loc 1 34 0
  92 0036 0A4B     		ldr	r3, .L7+4
  93 0038 0022     		movs	r2, #0
  94 003a DA70     		strb	r2, [r3, #3]
  95              	.L3:
  35:source/SampleApp.c ****   Can_Init(NULL_PTR);
  96              		.loc 1 35 0
  97 003c 0020     		movs	r0, #0
  98 003e FFF7FEFF 		bl	Can_Init
  36:source/SampleApp.c ****   switch (arr[0])
  99              		.loc 1 36 0
 100 0042 074B     		ldr	r3, .L7+4
 101 0044 1B78     		ldrb	r3, [r3]	@ zero_extendqisi2
 102 0046 012B     		cmp	r3, #1
 103 0048 06D1     		bne	.L4
  37:source/SampleApp.c ****     case (1):
  38:source/SampleApp.c ****     {
  39:source/SampleApp.c ****       arr[2] = 0;
 104              		.loc 1 39 0
 105 004a 054B     		ldr	r3, .L7+4
 106 004c 0022     		movs	r2, #0
 107 004e 9A70     		strb	r2, [r3, #2]
  40:source/SampleApp.c ****       arr[3] = 0;
 108              		.loc 1 40 0
 109 0050 034B     		ldr	r3, .L7+4
 110 0052 0022     		movs	r2, #0
 111 0054 DA70     		strb	r2, [r3, #3]
  41:source/SampleApp.c ****       break;
 112              		.loc 1 41 0
 113 0056 00BF     		nop
 114              	.L4:
 115              	.L6:
  42:source/SampleApp.c ****     }
  43:source/SampleApp.c ****   for(;;)
 116              		.loc 1 43 0 discriminator 1
 117 0058 FEE7     		b	.L6
 118              	.L8:
 119 005a 00BF     		.align	2
 120              	.L7:
 121 005c 00000000 		.word	.LC0
 122 0060 00000000 		.word	arr
 123              		.cfi_endproc
 124              	.LFE0:
 125              		.size	main, .-main
 126              		.align	1
 127              		.global	add_list
 128              		.syntax unified
ARM GAS  C:\Users\nvdun\AppData\Local\Temp\cchqhv9l.s 			page 4


 129              		.thumb
 130              		.thumb_func
 131              		.fpu softvfp
 132              		.type	add_list, %function
 133              	add_list:
 134              	.LFB1:
  44:source/SampleApp.c ****   {
  45:source/SampleApp.c ****     
  46:source/SampleApp.c ****   }
  47:source/SampleApp.c ****   return 0;
  48:source/SampleApp.c **** }
  49:source/SampleApp.c **** 
  50:source/SampleApp.c **** Std_ReturnType add_list(List* ele)
  51:source/SampleApp.c **** {
 135              		.loc 1 51 0
 136              		.cfi_startproc
 137              		@ args = 0, pretend = 0, frame = 8
 138              		@ frame_needed = 1, uses_anonymous_args = 0
 139              		@ link register save eliminated.
 140 0064 80B4     		push	{r7}
 141              	.LCFI3:
 142              		.cfi_def_cfa_offset 4
 143              		.cfi_offset 7, -4
 144 0066 83B0     		sub	sp, sp, #12
 145              	.LCFI4:
 146              		.cfi_def_cfa_offset 16
 147 0068 00AF     		add	r7, sp, #0
 148              	.LCFI5:
 149              		.cfi_def_cfa_register 7
 150 006a 7860     		str	r0, [r7, #4]
  52:source/SampleApp.c ****   mylist._next = ele;
 151              		.loc 1 52 0
 152 006c 054A     		ldr	r2, .L11
 153 006e 7B68     		ldr	r3, [r7, #4]
 154 0070 9360     		str	r3, [r2, #8]
  53:source/SampleApp.c ****   ele->_pre = &mylist;
 155              		.loc 1 53 0
 156 0072 7B68     		ldr	r3, [r7, #4]
 157 0074 034A     		ldr	r2, .L11
 158 0076 1A60     		str	r2, [r3]
  54:source/SampleApp.c ****   return E_OK;
 159              		.loc 1 54 0
 160 0078 0023     		movs	r3, #0
  55:source/SampleApp.c **** }
 161              		.loc 1 55 0
 162 007a 1846     		mov	r0, r3
 163 007c 0C37     		adds	r7, r7, #12
 164              	.LCFI6:
 165              		.cfi_def_cfa_offset 4
 166 007e BD46     		mov	sp, r7
 167              	.LCFI7:
 168              		.cfi_def_cfa_register 13
 169              		@ sp needed
 170 0080 80BC     		pop	{r7}
 171              	.LCFI8:
 172              		.cfi_restore 7
 173              		.cfi_def_cfa_offset 0
ARM GAS  C:\Users\nvdun\AppData\Local\Temp\cchqhv9l.s 			page 5


 174 0082 7047     		bx	lr
 175              	.L12:
 176              		.align	2
 177              	.L11:
 178 0084 00000000 		.word	mylist
 179              		.cfi_endproc
 180              	.LFE1:
 181              		.size	add_list, .-add_list
 182              		.align	1
 183              		.global	System_Init
 184              		.syntax unified
 185              		.thumb
 186              		.thumb_func
 187              		.fpu softvfp
 188              		.type	System_Init, %function
 189              	System_Init:
 190              	.LFB2:
  56:source/SampleApp.c **** 
  57:source/SampleApp.c **** void System_Init(void)
  58:source/SampleApp.c **** {
 191              		.loc 1 58 0
 192              		.cfi_startproc
 193              		@ args = 0, pretend = 0, frame = 0
 194              		@ frame_needed = 1, uses_anonymous_args = 0
 195              		@ link register save eliminated.
 196 0088 80B4     		push	{r7}
 197              	.LCFI9:
 198              		.cfi_def_cfa_offset 4
 199              		.cfi_offset 7, -4
 200 008a 00AF     		add	r7, sp, #0
 201              	.LCFI10:
 202              		.cfi_def_cfa_register 7
  59:source/SampleApp.c ****   arr[0] = 0xFF;
 203              		.loc 1 59 0
 204 008c 034B     		ldr	r3, .L14
 205 008e FF22     		movs	r2, #255
 206 0090 1A70     		strb	r2, [r3]
  60:source/SampleApp.c **** }
 207              		.loc 1 60 0
 208 0092 00BF     		nop
 209 0094 BD46     		mov	sp, r7
 210              	.LCFI11:
 211              		.cfi_def_cfa_register 13
 212              		@ sp needed
 213 0096 80BC     		pop	{r7}
 214              	.LCFI12:
 215              		.cfi_restore 7
 216              		.cfi_def_cfa_offset 0
 217 0098 7047     		bx	lr
 218              	.L15:
 219 009a 00BF     		.align	2
 220              	.L14:
 221 009c 00000000 		.word	arr
 222              		.cfi_endproc
 223              	.LFE2:
 224              		.size	System_Init, .-System_Init
 225              	.Letext0:
ARM GAS  C:\Users\nvdun\AppData\Local\Temp\cchqhv9l.s 			page 6


 226              		.file 2 "../github/stm32/common/platform/include/Platform_Types.h"
 227              		.file 3 "../github/stm32/common/standard/include/Std_Types.h"
 228              		.file 4 "../github/stm32/common/stub/CanGeneral/include/Can_GeneralTypes.h"
 229              		.file 5 "../github/stm32/common/stub/EcuM/include/EcuM.h"
 230              		.file 6 "../github/stm32/modules/CAN/include/Can_Types.h"
 231              		.file 7 "../github/stm32/modules/CAN/include/Can_PBTypes.h"
 232              		.file 8 "../github/stm32/modules/CAN/include/Can_PCTypes.h"
 233              		.file 9 "../github/stm32/modules/CAN/include/Can.h"
 234              		.section	.debug_info,"",%progbits
 235              	.Ldebug_info0:
 236 0000 E5060000 		.4byte	0x6e5
 237 0004 0200     		.2byte	0x2
 238 0006 00000000 		.4byte	.Ldebug_abbrev0
 239 000a 04       		.byte	0x4
 240 000b 01       		.uleb128 0x1
 241 000c B3010000 		.4byte	.LASF124
 242 0010 0C       		.byte	0xc
 243 0011 1E010000 		.4byte	.LASF125
 244 0015 EE060000 		.4byte	.LASF126
 245 0019 00000000 		.4byte	.Ltext0
 246 001d A0000000 		.4byte	.Letext0
 247 0021 00000000 		.4byte	.Ldebug_line0
 248 0025 02       		.uleb128 0x2
 249 0026 27070000 		.4byte	.LASF0
 250 002a 02       		.byte	0x2
 251 002b 30       		.byte	0x30
 252 002c 30000000 		.4byte	0x30
 253 0030 03       		.uleb128 0x3
 254 0031 01       		.byte	0x1
 255 0032 08       		.byte	0x8
 256 0033 01060000 		.4byte	.LASF3
 257 0037 02       		.uleb128 0x2
 258 0038 41020000 		.4byte	.LASF1
 259 003c 02       		.byte	0x2
 260 003d 31       		.byte	0x31
 261 003e 30000000 		.4byte	0x30
 262 0042 02       		.uleb128 0x2
 263 0043 00000000 		.4byte	.LASF2
 264 0047 02       		.byte	0x2
 265 0048 32       		.byte	0x32
 266 0049 4D000000 		.4byte	0x4d
 267 004d 03       		.uleb128 0x3
 268 004e 02       		.byte	0x2
 269 004f 07       		.byte	0x7
 270 0050 A1030000 		.4byte	.LASF4
 271 0054 02       		.uleb128 0x2
 272 0055 9A020000 		.4byte	.LASF5
 273 0059 02       		.byte	0x2
 274 005a 33       		.byte	0x33
 275 005b 5F000000 		.4byte	0x5f
 276 005f 03       		.uleb128 0x3
 277 0060 04       		.byte	0x4
 278 0061 07       		.byte	0x7
 279 0062 1C030000 		.4byte	.LASF6
 280 0066 03       		.uleb128 0x3
 281 0067 08       		.byte	0x8
 282 0068 07       		.byte	0x7
ARM GAS  C:\Users\nvdun\AppData\Local\Temp\cchqhv9l.s 			page 7


 283 0069 81000000 		.4byte	.LASF7
 284 006d 03       		.uleb128 0x3
 285 006e 01       		.byte	0x1
 286 006f 06       		.byte	0x6
 287 0070 12010000 		.4byte	.LASF8
 288 0074 03       		.uleb128 0x3
 289 0075 02       		.byte	0x2
 290 0076 05       		.byte	0x5
 291 0077 2D060000 		.4byte	.LASF9
 292 007b 04       		.uleb128 0x4
 293 007c 04       		.byte	0x4
 294 007d 05       		.byte	0x5
 295 007e 696E7400 		.ascii	"int\000"
 296 0082 03       		.uleb128 0x3
 297 0083 08       		.byte	0x8
 298 0084 05       		.byte	0x5
 299 0085 04010000 		.4byte	.LASF10
 300 0089 03       		.uleb128 0x3
 301 008a 04       		.byte	0x4
 302 008b 04       		.byte	0x4
 303 008c 96050000 		.4byte	.LASF11
 304 0090 03       		.uleb128 0x3
 305 0091 08       		.byte	0x8
 306 0092 04       		.byte	0x4
 307 0093 66020000 		.4byte	.LASF12
 308 0097 02       		.uleb128 0x2
 309 0098 96060000 		.4byte	.LASF13
 310 009c 03       		.byte	0x3
 311 009d 2F       		.byte	0x2f
 312 009e 37000000 		.4byte	0x37
 313 00a2 05       		.uleb128 0x5
 314 00a3 B6070000 		.4byte	.LASF20
 315 00a7 07       		.byte	0x7
 316 00a8 01       		.byte	0x1
 317 00a9 30000000 		.4byte	0x30
 318 00ad 04       		.byte	0x4
 319 00ae 28       		.byte	0x28
 320 00af CC000000 		.4byte	0xcc
 321 00b3 06       		.uleb128 0x6
 322 00b4 51010000 		.4byte	.LASF14
 323 00b8 00       		.byte	0
 324 00b9 06       		.uleb128 0x6
 325 00ba 27080000 		.4byte	.LASF15
 326 00be 01       		.byte	0x1
 327 00bf 06       		.uleb128 0x6
 328 00c0 C9050000 		.4byte	.LASF16
 329 00c4 02       		.byte	0x2
 330 00c5 06       		.uleb128 0x6
 331 00c6 BC050000 		.4byte	.LASF17
 332 00ca 03       		.byte	0x3
 333 00cb 00       		.byte	0
 334 00cc 02       		.uleb128 0x2
 335 00cd 8D070000 		.4byte	.LASF18
 336 00d1 04       		.byte	0x4
 337 00d2 32       		.byte	0x32
 338 00d3 A2000000 		.4byte	0xa2
 339 00d7 02       		.uleb128 0x2
ARM GAS  C:\Users\nvdun\AppData\Local\Temp\cchqhv9l.s 			page 8


 340 00d8 8B030000 		.4byte	.LASF19
 341 00dc 05       		.byte	0x5
 342 00dd 17       		.byte	0x17
 343 00de 54000000 		.4byte	0x54
 344 00e2 05       		.uleb128 0x5
 345 00e3 5A030000 		.4byte	.LASF21
 346 00e7 07       		.byte	0x7
 347 00e8 01       		.byte	0x1
 348 00e9 30000000 		.4byte	0x30
 349 00ed 06       		.byte	0x6
 350 00ee 14       		.byte	0x14
 351 00ef 00010000 		.4byte	0x100
 352 00f3 06       		.uleb128 0x6
 353 00f4 96080000 		.4byte	.LASF22
 354 00f8 00       		.byte	0
 355 00f9 06       		.uleb128 0x6
 356 00fa 74000000 		.4byte	.LASF23
 357 00fe 01       		.byte	0x1
 358 00ff 00       		.byte	0
 359 0100 02       		.uleb128 0x2
 360 0101 DF020000 		.4byte	.LASF24
 361 0105 06       		.byte	0x6
 362 0106 18       		.byte	0x18
 363 0107 E2000000 		.4byte	0xe2
 364 010b 05       		.uleb128 0x5
 365 010c 6F080000 		.4byte	.LASF25
 366 0110 07       		.byte	0x7
 367 0111 01       		.byte	0x1
 368 0112 30000000 		.4byte	0x30
 369 0116 06       		.byte	0x6
 370 0117 1A       		.byte	0x1a
 371 0118 2F010000 		.4byte	0x12f
 372 011c 06       		.uleb128 0x6
 373 011d 86060000 		.4byte	.LASF26
 374 0121 00       		.byte	0
 375 0122 06       		.uleb128 0x6
 376 0123 7D070000 		.4byte	.LASF27
 377 0127 01       		.byte	0x1
 378 0128 06       		.uleb128 0x6
 379 0129 44010000 		.4byte	.LASF28
 380 012d 02       		.byte	0x2
 381 012e 00       		.byte	0
 382 012f 02       		.uleb128 0x2
 383 0130 00040000 		.4byte	.LASF29
 384 0134 06       		.byte	0x6
 385 0135 1F       		.byte	0x1f
 386 0136 0B010000 		.4byte	0x10b
 387 013a 05       		.uleb128 0x5
 388 013b 31010000 		.4byte	.LASF30
 389 013f 07       		.byte	0x7
 390 0140 01       		.byte	0x1
 391 0141 30000000 		.4byte	0x30
 392 0145 06       		.byte	0x6
 393 0146 21       		.byte	0x21
 394 0147 58010000 		.4byte	0x158
 395 014b 06       		.uleb128 0x6
 396 014c F1050000 		.4byte	.LASF31
ARM GAS  C:\Users\nvdun\AppData\Local\Temp\cchqhv9l.s 			page 9


 397 0150 00       		.byte	0
 398 0151 06       		.uleb128 0x6
 399 0152 A5070000 		.4byte	.LASF32
 400 0156 01       		.byte	0x1
 401 0157 00       		.byte	0
 402 0158 02       		.uleb128 0x2
 403 0159 0E030000 		.4byte	.LASF33
 404 015d 06       		.byte	0x6
 405 015e 25       		.byte	0x25
 406 015f 3A010000 		.4byte	0x13a
 407 0163 05       		.uleb128 0x5
 408 0164 AD020000 		.4byte	.LASF34
 409 0168 07       		.byte	0x7
 410 0169 01       		.byte	0x1
 411 016a 30000000 		.4byte	0x30
 412 016e 06       		.byte	0x6
 413 016f 27       		.byte	0x27
 414 0170 87010000 		.4byte	0x187
 415 0174 06       		.uleb128 0x6
 416 0175 5F010000 		.4byte	.LASF35
 417 0179 00       		.byte	0
 418 017a 06       		.uleb128 0x6
 419 017b 6D020000 		.4byte	.LASF36
 420 017f 01       		.byte	0x1
 421 0180 06       		.uleb128 0x6
 422 0181 CA000000 		.4byte	.LASF37
 423 0185 02       		.byte	0x2
 424 0186 00       		.byte	0
 425 0187 02       		.uleb128 0x2
 426 0188 BB000000 		.4byte	.LASF38
 427 018c 06       		.byte	0x6
 428 018d 2C       		.byte	0x2c
 429 018e 63010000 		.4byte	0x163
 430 0192 05       		.uleb128 0x5
 431 0193 A4080000 		.4byte	.LASF39
 432 0197 07       		.byte	0x7
 433 0198 01       		.byte	0x1
 434 0199 30000000 		.4byte	0x30
 435 019d 06       		.byte	0x6
 436 019e 38       		.byte	0x38
 437 019f B0010000 		.4byte	0x1b0
 438 01a3 06       		.uleb128 0x6
 439 01a4 07000000 		.4byte	.LASF40
 440 01a8 00       		.byte	0
 441 01a9 06       		.uleb128 0x6
 442 01aa FB020000 		.4byte	.LASF41
 443 01ae 01       		.byte	0x1
 444 01af 00       		.byte	0
 445 01b0 02       		.uleb128 0x2
 446 01b1 AA050000 		.4byte	.LASF42
 447 01b5 06       		.byte	0x6
 448 01b6 3C       		.byte	0x3c
 449 01b7 92010000 		.4byte	0x192
 450 01bb 05       		.uleb128 0x5
 451 01bc 36080000 		.4byte	.LASF43
 452 01c0 07       		.byte	0x7
 453 01c1 01       		.byte	0x1
ARM GAS  C:\Users\nvdun\AppData\Local\Temp\cchqhv9l.s 			page 10


 454 01c2 30000000 		.4byte	0x30
 455 01c6 06       		.byte	0x6
 456 01c7 3E       		.byte	0x3e
 457 01c8 DF010000 		.4byte	0x1df
 458 01cc 06       		.uleb128 0x6
 459 01cd C9020000 		.4byte	.LASF44
 460 01d1 00       		.byte	0
 461 01d2 06       		.uleb128 0x6
 462 01d3 98040000 		.4byte	.LASF45
 463 01d7 01       		.byte	0x1
 464 01d8 06       		.uleb128 0x6
 465 01d9 D1080000 		.4byte	.LASF46
 466 01dd 02       		.byte	0x2
 467 01de 00       		.byte	0
 468 01df 02       		.uleb128 0x2
 469 01e0 72010000 		.4byte	.LASF47
 470 01e4 06       		.byte	0x6
 471 01e5 43       		.byte	0x43
 472 01e6 BB010000 		.4byte	0x1bb
 473 01ea 07       		.uleb128 0x7
 474 01eb 0F060000 		.4byte	.LASF56
 475 01ef 08       		.byte	0x8
 476 01f0 07       		.byte	0x7
 477 01f1 0D       		.byte	0xd
 478 01f2 59020000 		.4byte	0x259
 479 01f6 08       		.uleb128 0x8
 480 01f7 F4000000 		.4byte	.LASF48
 481 01fb 07       		.byte	0x7
 482 01fc 0F       		.byte	0xf
 483 01fd 42000000 		.4byte	0x42
 484 0201 02       		.byte	0x2
 485 0202 23       		.byte	0x23
 486 0203 00       		.uleb128 0
 487 0204 08       		.uleb128 0x8
 488 0205 86010000 		.4byte	.LASF49
 489 0209 07       		.byte	0x7
 490 020a 10       		.byte	0x10
 491 020b 37000000 		.4byte	0x37
 492 020f 02       		.byte	0x2
 493 0210 23       		.byte	0x23
 494 0211 02       		.uleb128 0x2
 495 0212 08       		.uleb128 0x8
 496 0213 0F050000 		.4byte	.LASF50
 497 0217 07       		.byte	0x7
 498 0218 11       		.byte	0x11
 499 0219 37000000 		.4byte	0x37
 500 021d 02       		.byte	0x2
 501 021e 23       		.byte	0x23
 502 021f 03       		.uleb128 0x3
 503 0220 08       		.uleb128 0x8
 504 0221 20050000 		.4byte	.LASF51
 505 0225 07       		.byte	0x7
 506 0226 12       		.byte	0x12
 507 0227 37000000 		.4byte	0x37
 508 022b 02       		.byte	0x2
 509 022c 23       		.byte	0x23
 510 022d 04       		.uleb128 0x4
ARM GAS  C:\Users\nvdun\AppData\Local\Temp\cchqhv9l.s 			page 11


 511 022e 08       		.uleb128 0x8
 512 022f 07090000 		.4byte	.LASF52
 513 0233 07       		.byte	0x7
 514 0234 13       		.byte	0x13
 515 0235 37000000 		.4byte	0x37
 516 0239 02       		.byte	0x2
 517 023a 23       		.byte	0x23
 518 023b 05       		.uleb128 0x5
 519 023c 08       		.uleb128 0x8
 520 023d C9060000 		.4byte	.LASF53
 521 0241 07       		.byte	0x7
 522 0242 14       		.byte	0x14
 523 0243 37000000 		.4byte	0x37
 524 0247 02       		.byte	0x2
 525 0248 23       		.byte	0x23
 526 0249 06       		.uleb128 0x6
 527 024a 08       		.uleb128 0x8
 528 024b 6D040000 		.4byte	.LASF54
 529 024f 07       		.byte	0x7
 530 0250 15       		.byte	0x15
 531 0251 37000000 		.4byte	0x37
 532 0255 02       		.byte	0x2
 533 0256 23       		.byte	0x23
 534 0257 07       		.uleb128 0x7
 535 0258 00       		.byte	0
 536 0259 02       		.uleb128 0x2
 537 025a 7F040000 		.4byte	.LASF55
 538 025e 07       		.byte	0x7
 539 025f 16       		.byte	0x16
 540 0260 EA010000 		.4byte	0x1ea
 541 0264 09       		.uleb128 0x9
 542 0265 59020000 		.4byte	0x259
 543 0269 07       		.uleb128 0x7
 544 026a 7A050000 		.4byte	.LASF57
 545 026e 0C       		.byte	0xc
 546 026f 07       		.byte	0x7
 547 0270 18       		.byte	0x18
 548 0271 D8020000 		.4byte	0x2d8
 549 0275 08       		.uleb128 0x8
 550 0276 12080000 		.4byte	.LASF58
 551 027a 07       		.byte	0x7
 552 027b 1A       		.byte	0x1a
 553 027c D8020000 		.4byte	0x2d8
 554 0280 02       		.byte	0x2
 555 0281 23       		.byte	0x23
 556 0282 00       		.uleb128 0
 557 0283 08       		.uleb128 0x8
 558 0284 CE030000 		.4byte	.LASF59
 559 0288 07       		.byte	0x7
 560 0289 1B       		.byte	0x1b
 561 028a 42000000 		.4byte	0x42
 562 028e 02       		.byte	0x2
 563 028f 23       		.byte	0x23
 564 0290 04       		.uleb128 0x4
 565 0291 08       		.uleb128 0x8
 566 0292 AC040000 		.4byte	.LASF60
 567 0296 07       		.byte	0x7
ARM GAS  C:\Users\nvdun\AppData\Local\Temp\cchqhv9l.s 			page 12


 568 0297 1C       		.byte	0x1c
 569 0298 42000000 		.4byte	0x42
 570 029c 02       		.byte	0x2
 571 029d 23       		.byte	0x23
 572 029e 06       		.uleb128 0x6
 573 029f 08       		.uleb128 0x8
 574 02a0 47020000 		.4byte	.LASF61
 575 02a4 07       		.byte	0x7
 576 02a5 1D       		.byte	0x1d
 577 02a6 37000000 		.4byte	0x37
 578 02aa 02       		.byte	0x2
 579 02ab 23       		.byte	0x23
 580 02ac 08       		.uleb128 0x8
 581 02ad 08       		.uleb128 0x8
 582 02ae 6D030000 		.4byte	.LASF62
 583 02b2 07       		.byte	0x7
 584 02b3 1E       		.byte	0x1e
 585 02b4 37000000 		.4byte	0x37
 586 02b8 02       		.byte	0x2
 587 02b9 23       		.byte	0x23
 588 02ba 09       		.uleb128 0x9
 589 02bb 08       		.uleb128 0x8
 590 02bc 7C030000 		.4byte	.LASF63
 591 02c0 07       		.byte	0x7
 592 02c1 1F       		.byte	0x1f
 593 02c2 37000000 		.4byte	0x37
 594 02c6 02       		.byte	0x2
 595 02c7 23       		.byte	0x23
 596 02c8 0A       		.uleb128 0xa
 597 02c9 08       		.uleb128 0x8
 598 02ca 5F040000 		.4byte	.LASF64
 599 02ce 07       		.byte	0x7
 600 02cf 20       		.byte	0x20
 601 02d0 37000000 		.4byte	0x37
 602 02d4 02       		.byte	0x2
 603 02d5 23       		.byte	0x23
 604 02d6 0B       		.uleb128 0xb
 605 02d7 00       		.byte	0
 606 02d8 0A       		.uleb128 0xa
 607 02d9 04       		.byte	0x4
 608 02da 64020000 		.4byte	0x264
 609 02de 02       		.uleb128 0x2
 610 02df FB070000 		.4byte	.LASF65
 611 02e3 07       		.byte	0x7
 612 02e4 21       		.byte	0x21
 613 02e5 69020000 		.4byte	0x269
 614 02e9 09       		.uleb128 0x9
 615 02ea DE020000 		.4byte	0x2de
 616 02ee 07       		.uleb128 0x7
 617 02ef 1A000000 		.4byte	.LASF66
 618 02f3 08       		.byte	0x8
 619 02f4 07       		.byte	0x7
 620 02f5 29       		.byte	0x29
 621 02f6 25030000 		.4byte	0x325
 622 02fa 08       		.uleb128 0x8
 623 02fb CB040000 		.4byte	.LASF67
 624 02ff 07       		.byte	0x7
ARM GAS  C:\Users\nvdun\AppData\Local\Temp\cchqhv9l.s 			page 13


 625 0300 2B       		.byte	0x2b
 626 0301 25030000 		.4byte	0x325
 627 0305 02       		.byte	0x2
 628 0306 23       		.byte	0x23
 629 0307 00       		.uleb128 0
 630 0308 08       		.uleb128 0x8
 631 0309 37060000 		.4byte	.LASF68
 632 030d 07       		.byte	0x7
 633 030e 2C       		.byte	0x2c
 634 030f 37000000 		.4byte	0x37
 635 0313 02       		.byte	0x2
 636 0314 23       		.byte	0x23
 637 0315 04       		.uleb128 0x4
 638 0316 08       		.uleb128 0x8
 639 0317 DB030000 		.4byte	.LASF69
 640 031b 07       		.byte	0x7
 641 031c 2D       		.byte	0x2d
 642 031d 37000000 		.4byte	0x37
 643 0321 02       		.byte	0x2
 644 0322 23       		.byte	0x23
 645 0323 05       		.uleb128 0x5
 646 0324 00       		.byte	0
 647 0325 0A       		.uleb128 0xa
 648 0326 04       		.byte	0x4
 649 0327 E9020000 		.4byte	0x2e9
 650 032b 02       		.uleb128 0x2
 651 032c 56060000 		.4byte	.LASF70
 652 0330 07       		.byte	0x7
 653 0331 2E       		.byte	0x2e
 654 0332 EE020000 		.4byte	0x2ee
 655 0336 09       		.uleb128 0x9
 656 0337 2B030000 		.4byte	0x32b
 657 033b 0B       		.uleb128 0xb
 658 033c A5060000 		.4byte	.LASF83
 659 0340 00       		.byte	0
 660 0341 07       		.byte	0x7
 661 0342 30       		.byte	0x30
 662 0343 02       		.uleb128 0x2
 663 0344 F0040000 		.4byte	.LASF71
 664 0348 07       		.byte	0x7
 665 0349 33       		.byte	0x33
 666 034a 3B030000 		.4byte	0x33b
 667 034e 09       		.uleb128 0x9
 668 034f 43030000 		.4byte	0x343
 669 0353 07       		.uleb128 0x7
 670 0354 3C030000 		.4byte	.LASF72
 671 0358 0C       		.byte	0xc
 672 0359 07       		.byte	0x7
 673 035a 35       		.byte	0x35
 674 035b DE030000 		.4byte	0x3de
 675 035f 08       		.uleb128 0x8
 676 0360 C1020000 		.4byte	.LASF73
 677 0364 07       		.byte	0x7
 678 0365 37       		.byte	0x37
 679 0366 42000000 		.4byte	0x42
 680 036a 02       		.byte	0x2
 681 036b 23       		.byte	0x23
ARM GAS  C:\Users\nvdun\AppData\Local\Temp\cchqhv9l.s 			page 14


 682 036c 00       		.uleb128 0
 683 036d 08       		.uleb128 0x8
 684 036e 6C070000 		.4byte	.LASF74
 685 0372 07       		.byte	0x7
 686 0373 38       		.byte	0x38
 687 0374 42000000 		.4byte	0x42
 688 0378 02       		.byte	0x2
 689 0379 23       		.byte	0x23
 690 037a 02       		.uleb128 0x2
 691 037b 08       		.uleb128 0x8
 692 037c 3A000000 		.4byte	.LASF75
 693 0380 07       		.byte	0x7
 694 0381 39       		.byte	0x39
 695 0382 00010000 		.4byte	0x100
 696 0386 02       		.byte	0x2
 697 0387 23       		.byte	0x23
 698 0388 04       		.uleb128 0x4
 699 0389 08       		.uleb128 0x8
 700 038a A1020000 		.4byte	.LASF76
 701 038e 07       		.byte	0x7
 702 038f 3A       		.byte	0x3a
 703 0390 2F010000 		.4byte	0x12f
 704 0394 02       		.byte	0x2
 705 0395 23       		.byte	0x23
 706 0396 05       		.uleb128 0x5
 707 0397 08       		.uleb128 0x8
 708 0398 31050000 		.4byte	.LASF77
 709 039c 07       		.byte	0x7
 710 039d 3B       		.byte	0x3b
 711 039e 58010000 		.4byte	0x158
 712 03a2 02       		.byte	0x2
 713 03a3 23       		.byte	0x23
 714 03a4 06       		.uleb128 0x6
 715 03a5 08       		.uleb128 0x8
 716 03a6 DE040000 		.4byte	.LASF78
 717 03aa 07       		.byte	0x7
 718 03ab 3C       		.byte	0x3c
 719 03ac 37000000 		.4byte	0x37
 720 03b0 02       		.byte	0x2
 721 03b1 23       		.byte	0x23
 722 03b2 07       		.uleb128 0x7
 723 03b3 08       		.uleb128 0x8
 724 03b4 4E050000 		.4byte	.LASF79
 725 03b8 07       		.byte	0x7
 726 03b9 3D       		.byte	0x3d
 727 03ba 37000000 		.4byte	0x37
 728 03be 02       		.byte	0x2
 729 03bf 23       		.byte	0x23
 730 03c0 08       		.uleb128 0x8
 731 03c1 08       		.uleb128 0x8
 732 03c2 59020000 		.4byte	.LASF80
 733 03c6 07       		.byte	0x7
 734 03c7 3E       		.byte	0x3e
 735 03c8 25000000 		.4byte	0x25
 736 03cc 02       		.byte	0x2
 737 03cd 23       		.byte	0x23
 738 03ce 09       		.uleb128 0x9
ARM GAS  C:\Users\nvdun\AppData\Local\Temp\cchqhv9l.s 			page 15


 739 03cf 08       		.uleb128 0x8
 740 03d0 16040000 		.4byte	.LASF81
 741 03d4 07       		.byte	0x7
 742 03d5 3F       		.byte	0x3f
 743 03d6 25000000 		.4byte	0x25
 744 03da 02       		.byte	0x2
 745 03db 23       		.byte	0x23
 746 03dc 0A       		.uleb128 0xa
 747 03dd 00       		.byte	0
 748 03de 02       		.uleb128 0x2
 749 03df 61050000 		.4byte	.LASF82
 750 03e3 07       		.byte	0x7
 751 03e4 40       		.byte	0x40
 752 03e5 53030000 		.4byte	0x353
 753 03e9 09       		.uleb128 0x9
 754 03ea DE030000 		.4byte	0x3de
 755 03ee 0B       		.uleb128 0xb
 756 03ef 24040000 		.4byte	.LASF84
 757 03f3 00       		.byte	0
 758 03f4 07       		.byte	0x7
 759 03f5 42       		.byte	0x42
 760 03f6 02       		.uleb128 0x2
 761 03f7 D3070000 		.4byte	.LASF85
 762 03fb 07       		.byte	0x7
 763 03fc 45       		.byte	0x45
 764 03fd EE030000 		.4byte	0x3ee
 765 0401 09       		.uleb128 0x9
 766 0402 F6030000 		.4byte	0x3f6
 767 0406 07       		.uleb128 0x7
 768 0407 4E080000 		.4byte	.LASF86
 769 040b 02       		.byte	0x2
 770 040c 08       		.byte	0x8
 771 040d 0F       		.byte	0xf
 772 040e 2F040000 		.4byte	0x42f
 773 0412 08       		.uleb128 0x8
 774 0413 DF060000 		.4byte	.LASF87
 775 0417 08       		.byte	0x8
 776 0418 11       		.byte	0x11
 777 0419 B0010000 		.4byte	0x1b0
 778 041d 02       		.byte	0x2
 779 041e 23       		.byte	0x23
 780 041f 00       		.uleb128 0
 781 0420 08       		.uleb128 0x8
 782 0421 98000000 		.4byte	.LASF88
 783 0425 08       		.byte	0x8
 784 0426 12       		.byte	0x12
 785 0427 DF010000 		.4byte	0x1df
 786 042b 02       		.byte	0x2
 787 042c 23       		.byte	0x23
 788 042d 01       		.uleb128 0x1
 789 042e 00       		.byte	0
 790 042f 02       		.uleb128 0x2
 791 0430 7E020000 		.4byte	.LASF89
 792 0434 08       		.byte	0x8
 793 0435 13       		.byte	0x13
 794 0436 06040000 		.4byte	0x406
 795 043a 07       		.uleb128 0x7
ARM GAS  C:\Users\nvdun\AppData\Local\Temp\cchqhv9l.s 			page 16


 796 043b 3A070000 		.4byte	.LASF90
 797 043f 10       		.byte	0x10
 798 0440 08       		.byte	0x8
 799 0441 1E       		.byte	0x1e
 800 0442 A9040000 		.4byte	0x4a9
 801 0446 08       		.uleb128 0x8
 802 0447 4A000000 		.4byte	.LASF91
 803 044b 08       		.byte	0x8
 804 044c 20       		.byte	0x20
 805 044d D7000000 		.4byte	0xd7
 806 0451 02       		.byte	0x2
 807 0452 23       		.byte	0x23
 808 0453 00       		.uleb128 0
 809 0454 08       		.uleb128 0x8
 810 0455 5A070000 		.4byte	.LASF92
 811 0459 08       		.byte	0x8
 812 045a 21       		.byte	0x21
 813 045b 87010000 		.4byte	0x187
 814 045f 02       		.byte	0x2
 815 0460 23       		.byte	0x23
 816 0461 04       		.uleb128 0x4
 817 0462 08       		.uleb128 0x8
 818 0463 A9000000 		.4byte	.LASF93
 819 0467 08       		.byte	0x8
 820 0468 22       		.byte	0x22
 821 0469 87010000 		.4byte	0x187
 822 046d 02       		.byte	0x2
 823 046e 23       		.byte	0x23
 824 046f 05       		.uleb128 0x5
 825 0470 08       		.uleb128 0x8
 826 0471 9C050000 		.4byte	.LASF94
 827 0475 08       		.byte	0x8
 828 0476 23       		.byte	0x23
 829 0477 87010000 		.4byte	0x187
 830 047b 02       		.byte	0x2
 831 047c 23       		.byte	0x23
 832 047d 06       		.uleb128 0x6
 833 047e 08       		.uleb128 0x8
 834 047f ED020000 		.4byte	.LASF95
 835 0483 08       		.byte	0x8
 836 0484 24       		.byte	0x24
 837 0485 87010000 		.4byte	0x187
 838 0489 02       		.byte	0x2
 839 048a 23       		.byte	0x23
 840 048b 07       		.uleb128 0x7
 841 048c 08       		.uleb128 0x8
 842 048d 29030000 		.4byte	.LASF96
 843 0491 08       		.byte	0x8
 844 0492 25       		.byte	0x25
 845 0493 A9040000 		.4byte	0x4a9
 846 0497 02       		.byte	0x2
 847 0498 23       		.byte	0x23
 848 0499 08       		.uleb128 0x8
 849 049a 08       		.uleb128 0x8
 850 049b DB030000 		.4byte	.LASF69
 851 049f 08       		.byte	0x8
 852 04a0 26       		.byte	0x26
ARM GAS  C:\Users\nvdun\AppData\Local\Temp\cchqhv9l.s 			page 17


 853 04a1 37000000 		.4byte	0x37
 854 04a5 02       		.byte	0x2
 855 04a6 23       		.byte	0x23
 856 04a7 0C       		.uleb128 0xc
 857 04a8 00       		.byte	0
 858 04a9 0A       		.uleb128 0xa
 859 04aa 04       		.byte	0x4
 860 04ab CC000000 		.4byte	0xcc
 861 04af 02       		.uleb128 0x2
 862 04b0 D9000000 		.4byte	.LASF97
 863 04b4 08       		.byte	0x8
 864 04b5 27       		.byte	0x27
 865 04b6 3A040000 		.4byte	0x43a
 866 04ba 09       		.uleb128 0x9
 867 04bb AF040000 		.4byte	0x4af
 868 04bf 07       		.uleb128 0x7
 869 04c0 42040000 		.4byte	.LASF98
 870 04c4 08       		.byte	0x8
 871 04c5 08       		.byte	0x8
 872 04c6 2D       		.byte	0x2d
 873 04c7 04050000 		.4byte	0x504
 874 04cb 08       		.uleb128 0x8
 875 04cc BA040000 		.4byte	.LASF99
 876 04d0 08       		.byte	0x8
 877 04d1 2F       		.byte	0x2f
 878 04d2 04050000 		.4byte	0x504
 879 04d6 02       		.byte	0x2
 880 04d7 23       		.byte	0x23
 881 04d8 00       		.uleb128 0
 882 04d9 08       		.uleb128 0x8
 883 04da 2F070000 		.4byte	.LASF100
 884 04de 08       		.byte	0x8
 885 04df 30       		.byte	0x30
 886 04e0 37000000 		.4byte	0x37
 887 04e4 02       		.byte	0x2
 888 04e5 23       		.byte	0x23
 889 04e6 04       		.uleb128 0x4
 890 04e7 08       		.uleb128 0x8
 891 04e8 ED030000 		.4byte	.LASF101
 892 04ec 08       		.byte	0x8
 893 04ed 31       		.byte	0x31
 894 04ee 37000000 		.4byte	0x37
 895 04f2 02       		.byte	0x2
 896 04f3 23       		.byte	0x23
 897 04f4 05       		.uleb128 0x5
 898 04f5 08       		.uleb128 0x8
 899 04f6 59000000 		.4byte	.LASF102
 900 04fa 08       		.byte	0x8
 901 04fb 32       		.byte	0x32
 902 04fc 37000000 		.4byte	0x37
 903 0500 02       		.byte	0x2
 904 0501 23       		.byte	0x23
 905 0502 06       		.uleb128 0x6
 906 0503 00       		.byte	0
 907 0504 0A       		.uleb128 0xa
 908 0505 04       		.byte	0x4
 909 0506 2F040000 		.4byte	0x42f
ARM GAS  C:\Users\nvdun\AppData\Local\Temp\cchqhv9l.s 			page 18


 910 050a 02       		.uleb128 0x2
 911 050b 7E080000 		.4byte	.LASF103
 912 050f 08       		.byte	0x8
 913 0510 33       		.byte	0x33
 914 0511 BF040000 		.4byte	0x4bf
 915 0515 09       		.uleb128 0x9
 916 0516 0A050000 		.4byte	0x50a
 917 051a 07       		.uleb128 0x7
 918 051b D8050000 		.4byte	.LASF104
 919 051f 1C       		.byte	0x1c
 920 0520 09       		.byte	0x9
 921 0521 3F       		.byte	0x3f
 922 0522 89050000 		.4byte	0x589
 923 0526 08       		.uleb128 0x8
 924 0527 9A010000 		.4byte	.LASF105
 925 052b 09       		.byte	0x9
 926 052c 41       		.byte	0x41
 927 052d 8F050000 		.4byte	0x58f
 928 0531 02       		.byte	0x2
 929 0532 23       		.byte	0x23
 930 0533 00       		.uleb128 0
 931 0534 08       		.uleb128 0x8
 932 0535 07070000 		.4byte	.LASF106
 933 0539 09       		.byte	0x9
 934 053a 42       		.byte	0x42
 935 053b 94050000 		.4byte	0x594
 936 053f 02       		.byte	0x2
 937 0540 23       		.byte	0x23
 938 0541 04       		.uleb128 0x4
 939 0542 08       		.uleb128 0x8
 940 0543 F8080000 		.4byte	.LASF107
 941 0547 09       		.byte	0x9
 942 0548 43       		.byte	0x43
 943 0549 A0050000 		.4byte	0x5a0
 944 054d 02       		.byte	0x2
 945 054e 23       		.byte	0x23
 946 054f 08       		.uleb128 0x8
 947 0550 08       		.uleb128 0x8
 948 0551 BB080000 		.4byte	.LASF108
 949 0555 09       		.byte	0x9
 950 0556 44       		.byte	0x44
 951 0557 A5050000 		.4byte	0x5a5
 952 055b 02       		.byte	0x2
 953 055c 23       		.byte	0x23
 954 055d 0C       		.uleb128 0xc
 955 055e 08       		.uleb128 0x8
 956 055f 69000000 		.4byte	.LASF109
 957 0563 09       		.byte	0x9
 958 0564 45       		.byte	0x45
 959 0565 AB050000 		.4byte	0x5ab
 960 0569 02       		.byte	0x2
 961 056a 23       		.byte	0x23
 962 056b 10       		.uleb128 0x10
 963 056c 08       		.uleb128 0x8
 964 056d 19070000 		.4byte	.LASF110
 965 0571 09       		.byte	0x9
 966 0572 46       		.byte	0x46
ARM GAS  C:\Users\nvdun\AppData\Local\Temp\cchqhv9l.s 			page 19


 967 0573 B1050000 		.4byte	0x5b1
 968 0577 02       		.byte	0x2
 969 0578 23       		.byte	0x23
 970 0579 14       		.uleb128 0x14
 971 057a 08       		.uleb128 0x8
 972 057b 3B050000 		.4byte	.LASF111
 973 057f 09       		.byte	0x9
 974 0580 47       		.byte	0x47
 975 0581 37000000 		.4byte	0x37
 976 0585 02       		.byte	0x2
 977 0586 23       		.byte	0x23
 978 0587 18       		.uleb128 0x18
 979 0588 00       		.byte	0
 980 0589 0A       		.uleb128 0xa
 981 058a 04       		.byte	0x4
 982 058b BA040000 		.4byte	0x4ba
 983 058f 09       		.uleb128 0x9
 984 0590 89050000 		.4byte	0x589
 985 0594 0A       		.uleb128 0xa
 986 0595 04       		.byte	0x4
 987 0596 36030000 		.4byte	0x336
 988 059a 0A       		.uleb128 0xa
 989 059b 04       		.byte	0x4
 990 059c 15050000 		.4byte	0x515
 991 05a0 09       		.uleb128 0x9
 992 05a1 9A050000 		.4byte	0x59a
 993 05a5 0A       		.uleb128 0xa
 994 05a6 04       		.byte	0x4
 995 05a7 4E030000 		.4byte	0x34e
 996 05ab 0A       		.uleb128 0xa
 997 05ac 04       		.byte	0x4
 998 05ad E9030000 		.4byte	0x3e9
 999 05b1 0A       		.uleb128 0xa
 1000 05b2 04       		.byte	0x4
 1001 05b3 01040000 		.4byte	0x401
 1002 05b7 02       		.uleb128 0x2
 1003 05b8 EC070000 		.4byte	.LASF112
 1004 05bc 09       		.byte	0x9
 1005 05bd 48       		.byte	0x48
 1006 05be 1A050000 		.4byte	0x51a
 1007 05c2 09       		.uleb128 0x9
 1008 05c3 B7050000 		.4byte	0x5b7
 1009 05c7 0C       		.uleb128 0xc
 1010 05c8 78060000 		.4byte	.LASF118
 1011 05cc 09       		.byte	0x9
 1012 05cd 4A       		.byte	0x4a
 1013 05ce D4050000 		.4byte	0x5d4
 1014 05d2 01       		.byte	0x1
 1015 05d3 01       		.byte	0x1
 1016 05d4 0A       		.uleb128 0xa
 1017 05d5 04       		.byte	0x4
 1018 05d6 C2050000 		.4byte	0x5c2
 1019 05da 07       		.uleb128 0x7
 1020 05db B4030000 		.4byte	.LASF113
 1021 05df 0C       		.byte	0xc
 1022 05e0 01       		.byte	0x1
 1023 05e1 04       		.byte	0x4
ARM GAS  C:\Users\nvdun\AppData\Local\Temp\cchqhv9l.s 			page 20


 1024 05e2 11060000 		.4byte	0x611
 1025 05e6 08       		.uleb128 0x8
 1026 05e7 EE080000 		.4byte	.LASF114
 1027 05eb 01       		.byte	0x1
 1028 05ec 06       		.byte	0x6
 1029 05ed 11060000 		.4byte	0x611
 1030 05f1 02       		.byte	0x2
 1031 05f2 23       		.byte	0x23
 1032 05f3 00       		.uleb128 0
 1033 05f4 08       		.uleb128 0x8
 1034 05f5 E5080000 		.4byte	.LASF115
 1035 05f9 01       		.byte	0x1
 1036 05fa 07       		.byte	0x7
 1037 05fb 17060000 		.4byte	0x617
 1038 05ff 02       		.byte	0x2
 1039 0600 23       		.byte	0x23
 1040 0601 04       		.uleb128 0x4
 1041 0602 08       		.uleb128 0x8
 1042 0603 77070000 		.4byte	.LASF116
 1043 0607 01       		.byte	0x1
 1044 0608 08       		.byte	0x8
 1045 0609 11060000 		.4byte	0x611
 1046 060d 02       		.byte	0x2
 1047 060e 23       		.byte	0x23
 1048 060f 08       		.uleb128 0x8
 1049 0610 00       		.byte	0
 1050 0611 0A       		.uleb128 0xa
 1051 0612 04       		.byte	0x4
 1052 0613 DA050000 		.4byte	0x5da
 1053 0617 0D       		.uleb128 0xd
 1054 0618 04       		.byte	0x4
 1055 0619 02       		.uleb128 0x2
 1056 061a EC050000 		.4byte	.LASF117
 1057 061e 01       		.byte	0x1
 1058 061f 09       		.byte	0x9
 1059 0620 DA050000 		.4byte	0x5da
 1060 0624 0E       		.uleb128 0xe
 1061 0625 37000000 		.4byte	0x37
 1062 0629 34060000 		.4byte	0x634
 1063 062d 0F       		.uleb128 0xf
 1064 062e 5F000000 		.4byte	0x5f
 1065 0632 03       		.byte	0x3
 1066 0633 00       		.byte	0
 1067 0634 10       		.uleb128 0x10
 1068 0635 61727200 		.ascii	"arr\000"
 1069 0639 01       		.byte	0x1
 1070 063a 0D       		.byte	0xd
 1071 063b 24060000 		.4byte	0x624
 1072 063f 01       		.byte	0x1
 1073 0640 05       		.byte	0x5
 1074 0641 03       		.byte	0x3
 1075 0642 00000000 		.4byte	arr
 1076 0646 11       		.uleb128 0x11
 1077 0647 AC010000 		.4byte	.LASF119
 1078 064b 01       		.byte	0x1
 1079 064c 0E       		.byte	0xe
 1080 064d 19060000 		.4byte	0x619
ARM GAS  C:\Users\nvdun\AppData\Local\Temp\cchqhv9l.s 			page 21


 1081 0651 01       		.byte	0x1
 1082 0652 05       		.byte	0x5
 1083 0653 03       		.byte	0x3
 1084 0654 00000000 		.4byte	mylist
 1085 0658 12       		.uleb128 0x12
 1086 0659 01       		.byte	0x1
 1087 065a 0A040000 		.4byte	.LASF127
 1088 065e 01       		.byte	0x1
 1089 065f 39       		.byte	0x39
 1090 0660 01       		.byte	0x1
 1091 0661 88000000 		.4byte	.LFB2
 1092 0665 A0000000 		.4byte	.LFE2
 1093 0669 00000000 		.4byte	.LLST2
 1094 066d 01       		.byte	0x1
 1095 066e 13       		.uleb128 0x13
 1096 066f 01       		.byte	0x1
 1097 0670 BE030000 		.4byte	.LASF120
 1098 0674 01       		.byte	0x1
 1099 0675 32       		.byte	0x32
 1100 0676 01       		.byte	0x1
 1101 0677 97000000 		.4byte	0x97
 1102 067b 64000000 		.4byte	.LFB1
 1103 067f 88000000 		.4byte	.LFE1
 1104 0683 44000000 		.4byte	.LLST1
 1105 0687 01       		.byte	0x1
 1106 0688 9B060000 		.4byte	0x69b
 1107 068c 14       		.uleb128 0x14
 1108 068d 656C6500 		.ascii	"ele\000"
 1109 0691 01       		.byte	0x1
 1110 0692 32       		.byte	0x32
 1111 0693 9B060000 		.4byte	0x69b
 1112 0697 02       		.byte	0x2
 1113 0698 91       		.byte	0x91
 1114 0699 74       		.sleb128 -12
 1115 069a 00       		.byte	0
 1116 069b 0A       		.uleb128 0xa
 1117 069c 04       		.byte	0x4
 1118 069d 19060000 		.4byte	0x619
 1119 06a1 15       		.uleb128 0x15
 1120 06a2 01       		.byte	0x1
 1121 06a3 F3080000 		.4byte	.LASF121
 1122 06a7 01       		.byte	0x1
 1123 06a8 16       		.byte	0x16
 1124 06a9 01       		.byte	0x1
 1125 06aa 7B000000 		.4byte	0x7b
 1126 06ae 00000000 		.4byte	.LFB0
 1127 06b2 64000000 		.4byte	.LFE0
 1128 06b6 A0000000 		.4byte	.LLST0
 1129 06ba 01       		.byte	0x1
 1130 06bb DC060000 		.4byte	0x6dc
 1131 06bf 16       		.uleb128 0x16
 1132 06c0 C7030000 		.4byte	.LASF122
 1133 06c4 01       		.byte	0x1
 1134 06c5 18       		.byte	0x18
 1135 06c6 19060000 		.4byte	0x619
 1136 06ca 02       		.byte	0x2
 1137 06cb 91       		.byte	0x91
ARM GAS  C:\Users\nvdun\AppData\Local\Temp\cchqhv9l.s 			page 22


 1138 06cc 6C       		.sleb128 -20
 1139 06cd 16       		.uleb128 0x16
 1140 06ce 71060000 		.4byte	.LASF123
 1141 06d2 01       		.byte	0x1
 1142 06d3 19       		.byte	0x19
 1143 06d4 DC060000 		.4byte	0x6dc
 1144 06d8 02       		.byte	0x2
 1145 06d9 91       		.byte	0x91
 1146 06da 64       		.sleb128 -28
 1147 06db 00       		.byte	0
 1148 06dc 17       		.uleb128 0x17
 1149 06dd 54000000 		.4byte	0x54
 1150 06e1 0F       		.uleb128 0xf
 1151 06e2 5F000000 		.4byte	0x5f
 1152 06e6 01       		.byte	0x1
 1153 06e7 00       		.byte	0
 1154 06e8 00       		.byte	0
 1155              		.section	.debug_abbrev,"",%progbits
 1156              	.Ldebug_abbrev0:
 1157 0000 01       		.uleb128 0x1
 1158 0001 11       		.uleb128 0x11
 1159 0002 01       		.byte	0x1
 1160 0003 25       		.uleb128 0x25
 1161 0004 0E       		.uleb128 0xe
 1162 0005 13       		.uleb128 0x13
 1163 0006 0B       		.uleb128 0xb
 1164 0007 03       		.uleb128 0x3
 1165 0008 0E       		.uleb128 0xe
 1166 0009 1B       		.uleb128 0x1b
 1167 000a 0E       		.uleb128 0xe
 1168 000b 11       		.uleb128 0x11
 1169 000c 01       		.uleb128 0x1
 1170 000d 12       		.uleb128 0x12
 1171 000e 01       		.uleb128 0x1
 1172 000f 10       		.uleb128 0x10
 1173 0010 06       		.uleb128 0x6
 1174 0011 00       		.byte	0
 1175 0012 00       		.byte	0
 1176 0013 02       		.uleb128 0x2
 1177 0014 16       		.uleb128 0x16
 1178 0015 00       		.byte	0
 1179 0016 03       		.uleb128 0x3
 1180 0017 0E       		.uleb128 0xe
 1181 0018 3A       		.uleb128 0x3a
 1182 0019 0B       		.uleb128 0xb
 1183 001a 3B       		.uleb128 0x3b
 1184 001b 0B       		.uleb128 0xb
 1185 001c 49       		.uleb128 0x49
 1186 001d 13       		.uleb128 0x13
 1187 001e 00       		.byte	0
 1188 001f 00       		.byte	0
 1189 0020 03       		.uleb128 0x3
 1190 0021 24       		.uleb128 0x24
 1191 0022 00       		.byte	0
 1192 0023 0B       		.uleb128 0xb
 1193 0024 0B       		.uleb128 0xb
 1194 0025 3E       		.uleb128 0x3e
ARM GAS  C:\Users\nvdun\AppData\Local\Temp\cchqhv9l.s 			page 23


 1195 0026 0B       		.uleb128 0xb
 1196 0027 03       		.uleb128 0x3
 1197 0028 0E       		.uleb128 0xe
 1198 0029 00       		.byte	0
 1199 002a 00       		.byte	0
 1200 002b 04       		.uleb128 0x4
 1201 002c 24       		.uleb128 0x24
 1202 002d 00       		.byte	0
 1203 002e 0B       		.uleb128 0xb
 1204 002f 0B       		.uleb128 0xb
 1205 0030 3E       		.uleb128 0x3e
 1206 0031 0B       		.uleb128 0xb
 1207 0032 03       		.uleb128 0x3
 1208 0033 08       		.uleb128 0x8
 1209 0034 00       		.byte	0
 1210 0035 00       		.byte	0
 1211 0036 05       		.uleb128 0x5
 1212 0037 04       		.uleb128 0x4
 1213 0038 01       		.byte	0x1
 1214 0039 03       		.uleb128 0x3
 1215 003a 0E       		.uleb128 0xe
 1216 003b 3E       		.uleb128 0x3e
 1217 003c 0B       		.uleb128 0xb
 1218 003d 0B       		.uleb128 0xb
 1219 003e 0B       		.uleb128 0xb
 1220 003f 49       		.uleb128 0x49
 1221 0040 13       		.uleb128 0x13
 1222 0041 3A       		.uleb128 0x3a
 1223 0042 0B       		.uleb128 0xb
 1224 0043 3B       		.uleb128 0x3b
 1225 0044 0B       		.uleb128 0xb
 1226 0045 01       		.uleb128 0x1
 1227 0046 13       		.uleb128 0x13
 1228 0047 00       		.byte	0
 1229 0048 00       		.byte	0
 1230 0049 06       		.uleb128 0x6
 1231 004a 28       		.uleb128 0x28
 1232 004b 00       		.byte	0
 1233 004c 03       		.uleb128 0x3
 1234 004d 0E       		.uleb128 0xe
 1235 004e 1C       		.uleb128 0x1c
 1236 004f 0B       		.uleb128 0xb
 1237 0050 00       		.byte	0
 1238 0051 00       		.byte	0
 1239 0052 07       		.uleb128 0x7
 1240 0053 13       		.uleb128 0x13
 1241 0054 01       		.byte	0x1
 1242 0055 03       		.uleb128 0x3
 1243 0056 0E       		.uleb128 0xe
 1244 0057 0B       		.uleb128 0xb
 1245 0058 0B       		.uleb128 0xb
 1246 0059 3A       		.uleb128 0x3a
 1247 005a 0B       		.uleb128 0xb
 1248 005b 3B       		.uleb128 0x3b
 1249 005c 0B       		.uleb128 0xb
 1250 005d 01       		.uleb128 0x1
 1251 005e 13       		.uleb128 0x13
ARM GAS  C:\Users\nvdun\AppData\Local\Temp\cchqhv9l.s 			page 24


 1252 005f 00       		.byte	0
 1253 0060 00       		.byte	0
 1254 0061 08       		.uleb128 0x8
 1255 0062 0D       		.uleb128 0xd
 1256 0063 00       		.byte	0
 1257 0064 03       		.uleb128 0x3
 1258 0065 0E       		.uleb128 0xe
 1259 0066 3A       		.uleb128 0x3a
 1260 0067 0B       		.uleb128 0xb
 1261 0068 3B       		.uleb128 0x3b
 1262 0069 0B       		.uleb128 0xb
 1263 006a 49       		.uleb128 0x49
 1264 006b 13       		.uleb128 0x13
 1265 006c 38       		.uleb128 0x38
 1266 006d 0A       		.uleb128 0xa
 1267 006e 00       		.byte	0
 1268 006f 00       		.byte	0
 1269 0070 09       		.uleb128 0x9
 1270 0071 26       		.uleb128 0x26
 1271 0072 00       		.byte	0
 1272 0073 49       		.uleb128 0x49
 1273 0074 13       		.uleb128 0x13
 1274 0075 00       		.byte	0
 1275 0076 00       		.byte	0
 1276 0077 0A       		.uleb128 0xa
 1277 0078 0F       		.uleb128 0xf
 1278 0079 00       		.byte	0
 1279 007a 0B       		.uleb128 0xb
 1280 007b 0B       		.uleb128 0xb
 1281 007c 49       		.uleb128 0x49
 1282 007d 13       		.uleb128 0x13
 1283 007e 00       		.byte	0
 1284 007f 00       		.byte	0
 1285 0080 0B       		.uleb128 0xb
 1286 0081 13       		.uleb128 0x13
 1287 0082 00       		.byte	0
 1288 0083 03       		.uleb128 0x3
 1289 0084 0E       		.uleb128 0xe
 1290 0085 0B       		.uleb128 0xb
 1291 0086 0B       		.uleb128 0xb
 1292 0087 3A       		.uleb128 0x3a
 1293 0088 0B       		.uleb128 0xb
 1294 0089 3B       		.uleb128 0x3b
 1295 008a 0B       		.uleb128 0xb
 1296 008b 00       		.byte	0
 1297 008c 00       		.byte	0
 1298 008d 0C       		.uleb128 0xc
 1299 008e 34       		.uleb128 0x34
 1300 008f 00       		.byte	0
 1301 0090 03       		.uleb128 0x3
 1302 0091 0E       		.uleb128 0xe
 1303 0092 3A       		.uleb128 0x3a
 1304 0093 0B       		.uleb128 0xb
 1305 0094 3B       		.uleb128 0x3b
 1306 0095 0B       		.uleb128 0xb
 1307 0096 49       		.uleb128 0x49
 1308 0097 13       		.uleb128 0x13
ARM GAS  C:\Users\nvdun\AppData\Local\Temp\cchqhv9l.s 			page 25


 1309 0098 3F       		.uleb128 0x3f
 1310 0099 0C       		.uleb128 0xc
 1311 009a 3C       		.uleb128 0x3c
 1312 009b 0C       		.uleb128 0xc
 1313 009c 00       		.byte	0
 1314 009d 00       		.byte	0
 1315 009e 0D       		.uleb128 0xd
 1316 009f 0F       		.uleb128 0xf
 1317 00a0 00       		.byte	0
 1318 00a1 0B       		.uleb128 0xb
 1319 00a2 0B       		.uleb128 0xb
 1320 00a3 00       		.byte	0
 1321 00a4 00       		.byte	0
 1322 00a5 0E       		.uleb128 0xe
 1323 00a6 01       		.uleb128 0x1
 1324 00a7 01       		.byte	0x1
 1325 00a8 49       		.uleb128 0x49
 1326 00a9 13       		.uleb128 0x13
 1327 00aa 01       		.uleb128 0x1
 1328 00ab 13       		.uleb128 0x13
 1329 00ac 00       		.byte	0
 1330 00ad 00       		.byte	0
 1331 00ae 0F       		.uleb128 0xf
 1332 00af 21       		.uleb128 0x21
 1333 00b0 00       		.byte	0
 1334 00b1 49       		.uleb128 0x49
 1335 00b2 13       		.uleb128 0x13
 1336 00b3 2F       		.uleb128 0x2f
 1337 00b4 0B       		.uleb128 0xb
 1338 00b5 00       		.byte	0
 1339 00b6 00       		.byte	0
 1340 00b7 10       		.uleb128 0x10
 1341 00b8 34       		.uleb128 0x34
 1342 00b9 00       		.byte	0
 1343 00ba 03       		.uleb128 0x3
 1344 00bb 08       		.uleb128 0x8
 1345 00bc 3A       		.uleb128 0x3a
 1346 00bd 0B       		.uleb128 0xb
 1347 00be 3B       		.uleb128 0x3b
 1348 00bf 0B       		.uleb128 0xb
 1349 00c0 49       		.uleb128 0x49
 1350 00c1 13       		.uleb128 0x13
 1351 00c2 3F       		.uleb128 0x3f
 1352 00c3 0C       		.uleb128 0xc
 1353 00c4 02       		.uleb128 0x2
 1354 00c5 0A       		.uleb128 0xa
 1355 00c6 00       		.byte	0
 1356 00c7 00       		.byte	0
 1357 00c8 11       		.uleb128 0x11
 1358 00c9 34       		.uleb128 0x34
 1359 00ca 00       		.byte	0
 1360 00cb 03       		.uleb128 0x3
 1361 00cc 0E       		.uleb128 0xe
 1362 00cd 3A       		.uleb128 0x3a
 1363 00ce 0B       		.uleb128 0xb
 1364 00cf 3B       		.uleb128 0x3b
 1365 00d0 0B       		.uleb128 0xb
ARM GAS  C:\Users\nvdun\AppData\Local\Temp\cchqhv9l.s 			page 26


 1366 00d1 49       		.uleb128 0x49
 1367 00d2 13       		.uleb128 0x13
 1368 00d3 3F       		.uleb128 0x3f
 1369 00d4 0C       		.uleb128 0xc
 1370 00d5 02       		.uleb128 0x2
 1371 00d6 0A       		.uleb128 0xa
 1372 00d7 00       		.byte	0
 1373 00d8 00       		.byte	0
 1374 00d9 12       		.uleb128 0x12
 1375 00da 2E       		.uleb128 0x2e
 1376 00db 00       		.byte	0
 1377 00dc 3F       		.uleb128 0x3f
 1378 00dd 0C       		.uleb128 0xc
 1379 00de 03       		.uleb128 0x3
 1380 00df 0E       		.uleb128 0xe
 1381 00e0 3A       		.uleb128 0x3a
 1382 00e1 0B       		.uleb128 0xb
 1383 00e2 3B       		.uleb128 0x3b
 1384 00e3 0B       		.uleb128 0xb
 1385 00e4 27       		.uleb128 0x27
 1386 00e5 0C       		.uleb128 0xc
 1387 00e6 11       		.uleb128 0x11
 1388 00e7 01       		.uleb128 0x1
 1389 00e8 12       		.uleb128 0x12
 1390 00e9 01       		.uleb128 0x1
 1391 00ea 40       		.uleb128 0x40
 1392 00eb 06       		.uleb128 0x6
 1393 00ec 9742     		.uleb128 0x2117
 1394 00ee 0C       		.uleb128 0xc
 1395 00ef 00       		.byte	0
 1396 00f0 00       		.byte	0
 1397 00f1 13       		.uleb128 0x13
 1398 00f2 2E       		.uleb128 0x2e
 1399 00f3 01       		.byte	0x1
 1400 00f4 3F       		.uleb128 0x3f
 1401 00f5 0C       		.uleb128 0xc
 1402 00f6 03       		.uleb128 0x3
 1403 00f7 0E       		.uleb128 0xe
 1404 00f8 3A       		.uleb128 0x3a
 1405 00f9 0B       		.uleb128 0xb
 1406 00fa 3B       		.uleb128 0x3b
 1407 00fb 0B       		.uleb128 0xb
 1408 00fc 27       		.uleb128 0x27
 1409 00fd 0C       		.uleb128 0xc
 1410 00fe 49       		.uleb128 0x49
 1411 00ff 13       		.uleb128 0x13
 1412 0100 11       		.uleb128 0x11
 1413 0101 01       		.uleb128 0x1
 1414 0102 12       		.uleb128 0x12
 1415 0103 01       		.uleb128 0x1
 1416 0104 40       		.uleb128 0x40
 1417 0105 06       		.uleb128 0x6
 1418 0106 9742     		.uleb128 0x2117
 1419 0108 0C       		.uleb128 0xc
 1420 0109 01       		.uleb128 0x1
 1421 010a 13       		.uleb128 0x13
 1422 010b 00       		.byte	0
ARM GAS  C:\Users\nvdun\AppData\Local\Temp\cchqhv9l.s 			page 27


 1423 010c 00       		.byte	0
 1424 010d 14       		.uleb128 0x14
 1425 010e 05       		.uleb128 0x5
 1426 010f 00       		.byte	0
 1427 0110 03       		.uleb128 0x3
 1428 0111 08       		.uleb128 0x8
 1429 0112 3A       		.uleb128 0x3a
 1430 0113 0B       		.uleb128 0xb
 1431 0114 3B       		.uleb128 0x3b
 1432 0115 0B       		.uleb128 0xb
 1433 0116 49       		.uleb128 0x49
 1434 0117 13       		.uleb128 0x13
 1435 0118 02       		.uleb128 0x2
 1436 0119 0A       		.uleb128 0xa
 1437 011a 00       		.byte	0
 1438 011b 00       		.byte	0
 1439 011c 15       		.uleb128 0x15
 1440 011d 2E       		.uleb128 0x2e
 1441 011e 01       		.byte	0x1
 1442 011f 3F       		.uleb128 0x3f
 1443 0120 0C       		.uleb128 0xc
 1444 0121 03       		.uleb128 0x3
 1445 0122 0E       		.uleb128 0xe
 1446 0123 3A       		.uleb128 0x3a
 1447 0124 0B       		.uleb128 0xb
 1448 0125 3B       		.uleb128 0x3b
 1449 0126 0B       		.uleb128 0xb
 1450 0127 27       		.uleb128 0x27
 1451 0128 0C       		.uleb128 0xc
 1452 0129 49       		.uleb128 0x49
 1453 012a 13       		.uleb128 0x13
 1454 012b 11       		.uleb128 0x11
 1455 012c 01       		.uleb128 0x1
 1456 012d 12       		.uleb128 0x12
 1457 012e 01       		.uleb128 0x1
 1458 012f 40       		.uleb128 0x40
 1459 0130 06       		.uleb128 0x6
 1460 0131 9642     		.uleb128 0x2116
 1461 0133 0C       		.uleb128 0xc
 1462 0134 01       		.uleb128 0x1
 1463 0135 13       		.uleb128 0x13
 1464 0136 00       		.byte	0
 1465 0137 00       		.byte	0
 1466 0138 16       		.uleb128 0x16
 1467 0139 34       		.uleb128 0x34
 1468 013a 00       		.byte	0
 1469 013b 03       		.uleb128 0x3
 1470 013c 0E       		.uleb128 0xe
 1471 013d 3A       		.uleb128 0x3a
 1472 013e 0B       		.uleb128 0xb
 1473 013f 3B       		.uleb128 0x3b
 1474 0140 0B       		.uleb128 0xb
 1475 0141 49       		.uleb128 0x49
 1476 0142 13       		.uleb128 0x13
 1477 0143 02       		.uleb128 0x2
 1478 0144 0A       		.uleb128 0xa
 1479 0145 00       		.byte	0
ARM GAS  C:\Users\nvdun\AppData\Local\Temp\cchqhv9l.s 			page 28


 1480 0146 00       		.byte	0
 1481 0147 17       		.uleb128 0x17
 1482 0148 01       		.uleb128 0x1
 1483 0149 01       		.byte	0x1
 1484 014a 49       		.uleb128 0x49
 1485 014b 13       		.uleb128 0x13
 1486 014c 00       		.byte	0
 1487 014d 00       		.byte	0
 1488 014e 00       		.byte	0
 1489              		.section	.debug_loc,"",%progbits
 1490              	.Ldebug_loc0:
 1491              	.LLST2:
 1492 0000 88000000 		.4byte	.LFB2-.Ltext0
 1493 0004 8A000000 		.4byte	.LCFI9-.Ltext0
 1494 0008 0200     		.2byte	0x2
 1495 000a 7D       		.byte	0x7d
 1496 000b 00       		.sleb128 0
 1497 000c 8A000000 		.4byte	.LCFI9-.Ltext0
 1498 0010 8C000000 		.4byte	.LCFI10-.Ltext0
 1499 0014 0200     		.2byte	0x2
 1500 0016 7D       		.byte	0x7d
 1501 0017 04       		.sleb128 4
 1502 0018 8C000000 		.4byte	.LCFI10-.Ltext0
 1503 001c 96000000 		.4byte	.LCFI11-.Ltext0
 1504 0020 0200     		.2byte	0x2
 1505 0022 77       		.byte	0x77
 1506 0023 04       		.sleb128 4
 1507 0024 96000000 		.4byte	.LCFI11-.Ltext0
 1508 0028 98000000 		.4byte	.LCFI12-.Ltext0
 1509 002c 0200     		.2byte	0x2
 1510 002e 7D       		.byte	0x7d
 1511 002f 04       		.sleb128 4
 1512 0030 98000000 		.4byte	.LCFI12-.Ltext0
 1513 0034 A0000000 		.4byte	.LFE2-.Ltext0
 1514 0038 0200     		.2byte	0x2
 1515 003a 7D       		.byte	0x7d
 1516 003b 00       		.sleb128 0
 1517 003c 00000000 		.4byte	0
 1518 0040 00000000 		.4byte	0
 1519              	.LLST1:
 1520 0044 64000000 		.4byte	.LFB1-.Ltext0
 1521 0048 66000000 		.4byte	.LCFI3-.Ltext0
 1522 004c 0200     		.2byte	0x2
 1523 004e 7D       		.byte	0x7d
 1524 004f 00       		.sleb128 0
 1525 0050 66000000 		.4byte	.LCFI3-.Ltext0
 1526 0054 68000000 		.4byte	.LCFI4-.Ltext0
 1527 0058 0200     		.2byte	0x2
 1528 005a 7D       		.byte	0x7d
 1529 005b 04       		.sleb128 4
 1530 005c 68000000 		.4byte	.LCFI4-.Ltext0
 1531 0060 6A000000 		.4byte	.LCFI5-.Ltext0
 1532 0064 0200     		.2byte	0x2
 1533 0066 7D       		.byte	0x7d
 1534 0067 10       		.sleb128 16
 1535 0068 6A000000 		.4byte	.LCFI5-.Ltext0
 1536 006c 7E000000 		.4byte	.LCFI6-.Ltext0
ARM GAS  C:\Users\nvdun\AppData\Local\Temp\cchqhv9l.s 			page 29


 1537 0070 0200     		.2byte	0x2
 1538 0072 77       		.byte	0x77
 1539 0073 10       		.sleb128 16
 1540 0074 7E000000 		.4byte	.LCFI6-.Ltext0
 1541 0078 80000000 		.4byte	.LCFI7-.Ltext0
 1542 007c 0200     		.2byte	0x2
 1543 007e 77       		.byte	0x77
 1544 007f 04       		.sleb128 4
 1545 0080 80000000 		.4byte	.LCFI7-.Ltext0
 1546 0084 82000000 		.4byte	.LCFI8-.Ltext0
 1547 0088 0200     		.2byte	0x2
 1548 008a 7D       		.byte	0x7d
 1549 008b 04       		.sleb128 4
 1550 008c 82000000 		.4byte	.LCFI8-.Ltext0
 1551 0090 88000000 		.4byte	.LFE1-.Ltext0
 1552 0094 0200     		.2byte	0x2
 1553 0096 7D       		.byte	0x7d
 1554 0097 00       		.sleb128 0
 1555 0098 00000000 		.4byte	0
 1556 009c 00000000 		.4byte	0
 1557              	.LLST0:
 1558 00a0 00000000 		.4byte	.LFB0-.Ltext0
 1559 00a4 02000000 		.4byte	.LCFI0-.Ltext0
 1560 00a8 0200     		.2byte	0x2
 1561 00aa 7D       		.byte	0x7d
 1562 00ab 00       		.sleb128 0
 1563 00ac 02000000 		.4byte	.LCFI0-.Ltext0
 1564 00b0 04000000 		.4byte	.LCFI1-.Ltext0
 1565 00b4 0200     		.2byte	0x2
 1566 00b6 7D       		.byte	0x7d
 1567 00b7 08       		.sleb128 8
 1568 00b8 04000000 		.4byte	.LCFI1-.Ltext0
 1569 00bc 06000000 		.4byte	.LCFI2-.Ltext0
 1570 00c0 0200     		.2byte	0x2
 1571 00c2 7D       		.byte	0x7d
 1572 00c3 20       		.sleb128 32
 1573 00c4 06000000 		.4byte	.LCFI2-.Ltext0
 1574 00c8 64000000 		.4byte	.LFE0-.Ltext0
 1575 00cc 0200     		.2byte	0x2
 1576 00ce 77       		.byte	0x77
 1577 00cf 20       		.sleb128 32
 1578 00d0 00000000 		.4byte	0
 1579 00d4 00000000 		.4byte	0
 1580              		.section	.debug_aranges,"",%progbits
 1581 0000 1C000000 		.4byte	0x1c
 1582 0004 0200     		.2byte	0x2
 1583 0006 00000000 		.4byte	.Ldebug_info0
 1584 000a 04       		.byte	0x4
 1585 000b 00       		.byte	0
 1586 000c 0000     		.2byte	0
 1587 000e 0000     		.2byte	0
 1588 0010 00000000 		.4byte	.Ltext0
 1589 0014 A0000000 		.4byte	.Letext0-.Ltext0
 1590 0018 00000000 		.4byte	0
 1591 001c 00000000 		.4byte	0
 1592              		.section	.debug_line,"",%progbits
 1593              	.Ldebug_line0:
ARM GAS  C:\Users\nvdun\AppData\Local\Temp\cchqhv9l.s 			page 30


 1594 0000 A0010000 		.section	.debug_str,"MS",%progbits,1
 1594      02007201 
 1594      00000201 
 1594      FB0E0D00 
 1594      01010101 
 1595              	.LASF2:
 1596 0000 75696E74 		.ascii	"uint16\000"
 1596      313600
 1597              	.LASF40:
 1598 0007 43414E5F 		.ascii	"CAN_ICOM_LEVEL_ONE\000"
 1598      49434F4D 
 1598      5F4C4556 
 1598      454C5F4F 
 1598      4E4500
 1599              	.LASF66:
 1600 001a 43616E5F 		.ascii	"Can_ControllerPBConfigType_STag\000"
 1600      436F6E74 
 1600      726F6C6C 
 1600      65725042 
 1600      436F6E66 
 1601              	.LASF75:
 1602 003a 656E4F62 		.ascii	"enObjHandleType\000"
 1602      6A48616E 
 1602      646C6554 
 1602      79706500 
 1603              	.LASF91:
 1604 004a 656E4361 		.ascii	"enCanWakeupRef\000"
 1604      6E57616B 
 1604      65757052 
 1604      656600
 1605              	.LASF102:
 1606 0059 75634361 		.ascii	"ucCanIcomEnable\000"
 1606      6E49636F 
 1606      6D456E61 
 1606      626C6500 
 1607              	.LASF109:
 1608 0069 73744361 		.ascii	"stCanHwObj\000"
 1608      6E48774F 
 1608      626A00
 1609              	.LASF23:
 1610 0074 43414E5F 		.ascii	"CAN_OBJ_FULL\000"
 1610      4F424A5F 
 1610      46554C4C 
 1610      00
 1611              	.LASF7:
 1612 0081 6C6F6E67 		.ascii	"long long unsigned int\000"
 1612      206C6F6E 
 1612      6720756E 
 1612      7369676E 
 1612      65642069 
 1613              	.LASF88:
 1614 0098 656E4361 		.ascii	"enCanIcomVariant\000"
 1614      6E49636F 
 1614      6D566172 
 1614      69616E74 
 1614      00
 1615              	.LASF93:
ARM GAS  C:\Users\nvdun\AppData\Local\Temp\cchqhv9l.s 			page 31


 1616 00a9 656E4361 		.ascii	"enCanBusoffModeOp\000"
 1616      6E427573 
 1616      6F66664D 
 1616      6F64654F 
 1616      7000
 1617              	.LASF38:
 1618 00bb 43616E5F 		.ascii	"Can_ModeOpType\000"
 1618      4D6F6465 
 1618      4F705479 
 1618      706500
 1619              	.LASF37:
 1620 00ca 43414E5F 		.ascii	"CAN_MODE_MIXED\000"
 1620      4D4F4445 
 1620      5F4D4958 
 1620      454400
 1621              	.LASF97:
 1622 00d9 43616E5F 		.ascii	"Can_ControllerPCConfigType\000"
 1622      436F6E74 
 1622      726F6C6C 
 1622      65725043 
 1622      436F6E66 
 1623              	.LASF48:
 1624 00f4 75734664 		.ascii	"usFdBaudrateBRP\000"
 1624      42617564 
 1624      72617465 
 1624      42525000 
 1625              	.LASF10:
 1626 0104 6C6F6E67 		.ascii	"long long int\000"
 1626      206C6F6E 
 1626      6720696E 
 1626      7400
 1627              	.LASF8:
 1628 0112 7369676E 		.ascii	"signed char\000"
 1628      65642063 
 1628      68617200 
 1629              	.LASF125:
 1630 011e 736F7572 		.ascii	"source/SampleApp.c\000"
 1630      63652F53 
 1630      616D706C 
 1630      65417070 
 1630      2E6300
 1631              	.LASF30:
 1632 0131 43616E4F 		.ascii	"CanObjectType_ETag\000"
 1632      626A6563 
 1632      74547970 
 1632      655F4554 
 1632      616700
 1633              	.LASF28:
 1634 0144 43414E5F 		.ascii	"CAN_ID_MIXED\000"
 1634      49445F4D 
 1634      49584544 
 1634      00
 1635              	.LASF14:
 1636 0151 43414E5F 		.ascii	"CAN_CS_UNINIT\000"
 1636      43535F55 
 1636      4E494E49 
 1636      5400
ARM GAS  C:\Users\nvdun\AppData\Local\Temp\cchqhv9l.s 			page 32


 1637              	.LASF35:
 1638 015f 43414E5F 		.ascii	"CAN_MODE_INTERRUPT\000"
 1638      4D4F4445 
 1638      5F494E54 
 1638      45525255 
 1638      505400
 1639              	.LASF47:
 1640 0172 43616E5F 		.ascii	"Can_IcomVariantType\000"
 1640      49636F6D 
 1640      56617269 
 1640      616E7454 
 1640      79706500 
 1641              	.LASF49:
 1642 0186 75634664 		.ascii	"ucFdBaudratePropSeg\000"
 1642      42617564 
 1642      72617465 
 1642      50726F70 
 1642      53656700 
 1643              	.LASF105:
 1644 019a 73744361 		.ascii	"stCanPCController\000"
 1644      6E504343 
 1644      6F6E7472 
 1644      6F6C6C65 
 1644      7200
 1645              	.LASF119:
 1646 01ac 6D796C69 		.ascii	"mylist\000"
 1646      737400
 1647              	.LASF124:
 1648 01b3 474E5520 		.ascii	"GNU C11 7.2.1 20170904 (release) [ARM/embedded-7-br"
 1648      43313120 
 1648      372E322E 
 1648      31203230 
 1648      31373039 
 1649 01e6 616E6368 		.ascii	"anch revision 255204] -mcpu=cortex-m4 -mthumb -mapc"
 1649      20726576 
 1649      6973696F 
 1649      6E203235 
 1649      35323034 
 1650 0219 732D6672 		.ascii	"s-frame -mthumb-interwork -gdwarf-2 -O0\000"
 1650      616D6520 
 1650      2D6D7468 
 1650      756D622D 
 1650      696E7465 
 1651              	.LASF1:
 1652 0241 75696E74 		.ascii	"uint8\000"
 1652      3800
 1653              	.LASF61:
 1654 0247 75634261 		.ascii	"ucBaudratePropSeg\000"
 1654      75647261 
 1654      74655072 
 1654      6F705365 
 1654      6700
 1655              	.LASF80:
 1656 0259 626C4F62 		.ascii	"blObjPolling\000"
 1656      6A506F6C 
 1656      6C696E67 
 1656      00
ARM GAS  C:\Users\nvdun\AppData\Local\Temp\cchqhv9l.s 			page 33


 1657              	.LASF12:
 1658 0266 646F7562 		.ascii	"double\000"
 1658      6C6500
 1659              	.LASF36:
 1660 026d 43414E5F 		.ascii	"CAN_MODE_POLLING\000"
 1660      4D4F4445 
 1660      5F504F4C 
 1660      4C494E47 
 1660      00
 1661              	.LASF89:
 1662 027e 43616E5F 		.ascii	"Can_IcomGeneralPCConfigType\000"
 1662      49636F6D 
 1662      47656E65 
 1662      72616C50 
 1662      43436F6E 
 1663              	.LASF5:
 1664 029a 75696E74 		.ascii	"uint32\000"
 1664      333200
 1665              	.LASF76:
 1666 02a1 656E4F62 		.ascii	"enObjIdType\000"
 1666      6A496454 
 1666      79706500 
 1667              	.LASF34:
 1668 02ad 43616E5F 		.ascii	"Can_ModeOpType_ETag\000"
 1668      4D6F6465 
 1668      4F705479 
 1668      70655F45 
 1668      54616700 
 1669              	.LASF73:
 1670 02c1 75734F62 		.ascii	"usObjId\000"
 1670      6A496400 
 1671              	.LASF44:
 1672 02c9 43414E5F 		.ascii	"CAN_ICOM_VARIANT_NONE\000"
 1672      49434F4D 
 1672      5F564152 
 1672      49414E54 
 1672      5F4E4F4E 
 1673              	.LASF24:
 1674 02df 43616E48 		.ascii	"CanHandleType\000"
 1674      616E646C 
 1674      65547970 
 1674      6500
 1675              	.LASF95:
 1676 02ed 656E4361 		.ascii	"enCanTxModeOp\000"
 1676      6E54784D 
 1676      6F64654F 
 1676      7000
 1677              	.LASF41:
 1678 02fb 43414E5F 		.ascii	"CAN_ICOM_LEVEL_TWO\000"
 1678      49434F4D 
 1678      5F4C4556 
 1678      454C5F54 
 1678      574F00
 1679              	.LASF33:
 1680 030e 43616E4F 		.ascii	"CanObjectType\000"
 1680      626A6563 
 1680      74547970 
ARM GAS  C:\Users\nvdun\AppData\Local\Temp\cchqhv9l.s 			page 34


 1680      6500
 1681              	.LASF6:
 1682 031c 756E7369 		.ascii	"unsigned int\000"
 1682      676E6564 
 1682      20696E74 
 1682      00
 1683              	.LASF96:
 1684 0329 70744361 		.ascii	"ptCanControllerSts\000"
 1684      6E436F6E 
 1684      74726F6C 
 1684      6C657253 
 1684      747300
 1685              	.LASF72:
 1686 033c 43616E5F 		.ascii	"Can_HwObjectPBConfigType_STag\000"
 1686      48774F62 
 1686      6A656374 
 1686      5042436F 
 1686      6E666967 
 1687              	.LASF21:
 1688 035a 43616E48 		.ascii	"CanHandleType_ETag\000"
 1688      616E646C 
 1688      65547970 
 1688      655F4554 
 1688      616700
 1689              	.LASF62:
 1690 036d 75634261 		.ascii	"ucBaudrateSeg1\000"
 1690      75647261 
 1690      74655365 
 1690      673100
 1691              	.LASF63:
 1692 037c 75634261 		.ascii	"ucBaudrateSeg2\000"
 1692      75647261 
 1692      74655365 
 1692      673200
 1693              	.LASF19:
 1694 038b 4563754D 		.ascii	"EcuM_WakeupSourceType\000"
 1694      5F57616B 
 1694      65757053 
 1694      6F757263 
 1694      65547970 
 1695              	.LASF4:
 1696 03a1 73686F72 		.ascii	"short unsigned int\000"
 1696      7420756E 
 1696      7369676E 
 1696      65642069 
 1696      6E7400
 1697              	.LASF113:
 1698 03b4 4C697374 		.ascii	"List_STag\000"
 1698      5F535461 
 1698      6700
 1699              	.LASF120:
 1700 03be 6164645F 		.ascii	"add_list\000"
 1700      6C697374 
 1700      00
 1701              	.LASF122:
 1702 03c7 6E657745 		.ascii	"newEle\000"
 1702      6C6500
ARM GAS  C:\Users\nvdun\AppData\Local\Temp\cchqhv9l.s 			page 35


 1703              	.LASF59:
 1704 03ce 75734261 		.ascii	"usBaudrateId\000"
 1704      75647261 
 1704      74654964 
 1704      00
 1705              	.LASF69:
 1706 03db 75634361 		.ascii	"ucCanControllerId\000"
 1706      6E436F6E 
 1706      74726F6C 
 1706      6C657249 
 1706      6400
 1707              	.LASF101:
 1708 03ed 75634361 		.ascii	"ucCanMultiplexedTx\000"
 1708      6E4D756C 
 1708      7469706C 
 1708      65786564 
 1708      547800
 1709              	.LASF29:
 1710 0400 43616E49 		.ascii	"CanIdType\000"
 1710      64547970 
 1710      6500
 1711              	.LASF127:
 1712 040a 53797374 		.ascii	"System_Init\000"
 1712      656D5F49 
 1712      6E697400 
 1713              	.LASF81:
 1714 0416 626C4F62 		.ascii	"blObjTrigerTx\000"
 1714      6A547269 
 1714      67657254 
 1714      7800
 1715              	.LASF84:
 1716 0424 43616E5F 		.ascii	"Can_HwFilterPBConfigType_STag\000"
 1716      48774669 
 1716      6C746572 
 1716      5042436F 
 1716      6E666967 
 1717              	.LASF98:
 1718 0442 43616E5F 		.ascii	"Can_GeneralPCConfigType_STag\000"
 1718      47656E65 
 1718      72616C50 
 1718      43436F6E 
 1718      66696754 
 1719              	.LASF64:
 1720 045f 75634261 		.ascii	"ucBaudrateSJW\000"
 1720      75647261 
 1720      7465534A 
 1720      5700
 1721              	.LASF54:
 1722 046d 75634664 		.ascii	"ucFdBaudrateTxBRS\000"
 1722      42617564 
 1722      72617465 
 1722      54784252 
 1722      5300
 1723              	.LASF55:
 1724 047f 43616E5F 		.ascii	"Can_FdBaudrateConfigType\000"
 1724      46644261 
 1724      75647261 
ARM GAS  C:\Users\nvdun\AppData\Local\Temp\cchqhv9l.s 			page 36


 1724      7465436F 
 1724      6E666967 
 1725              	.LASF45:
 1726 0498 43414E5F 		.ascii	"CAN_ICOM_VARIANT_HW\000"
 1726      49434F4D 
 1726      5F564152 
 1726      49414E54 
 1726      5F485700 
 1727              	.LASF60:
 1728 04ac 75734261 		.ascii	"usBaudrateBRP\000"
 1728      75647261 
 1728      74654252 
 1728      5000
 1729              	.LASF99:
 1730 04ba 73744361 		.ascii	"stCanIcomGeneral\000"
 1730      6E49636F 
 1730      6D47656E 
 1730      6572616C 
 1730      00
 1731              	.LASF67:
 1732 04cb 73744361 		.ascii	"stCan_BaudrateConf\000"
 1732      6E5F4261 
 1732      75647261 
 1732      7465436F 
 1732      6E6600
 1733              	.LASF78:
 1734 04de 75634F62 		.ascii	"ucObjFdPaddingVal\000"
 1734      6A466450 
 1734      61646469 
 1734      6E675661 
 1734      6C00
 1735              	.LASF71:
 1736 04f0 43616E5F 		.ascii	"Can_IcomControllerPBConfigType\000"
 1736      49636F6D 
 1736      436F6E74 
 1736      726F6C6C 
 1736      65725042 
 1737              	.LASF50:
 1738 050f 75634664 		.ascii	"ucFdBaudrateSeg1\000"
 1738      42617564 
 1738      72617465 
 1738      53656731 
 1738      00
 1739              	.LASF51:
 1740 0520 75634664 		.ascii	"ucFdBaudrateSeg2\000"
 1740      42617564 
 1740      72617465 
 1740      53656732 
 1740      00
 1741              	.LASF77:
 1742 0531 656E4F62 		.ascii	"enObjType\000"
 1742      6A547970 
 1742      6500
 1743              	.LASF111:
 1744 053b 75634E75 		.ascii	"ucNumCanController\000"
 1744      6D43616E 
 1744      436F6E74 
ARM GAS  C:\Users\nvdun\AppData\Local\Temp\cchqhv9l.s 			page 37


 1744      726F6C6C 
 1744      657200
 1745              	.LASF79:
 1746 054e 75634361 		.ascii	"ucCanControllerRef\000"
 1746      6E436F6E 
 1746      74726F6C 
 1746      6C657252 
 1746      656600
 1747              	.LASF82:
 1748 0561 43616E5F 		.ascii	"Can_HwObjectPBConfigType\000"
 1748      48774F62 
 1748      6A656374 
 1748      5042436F 
 1748      6E666967 
 1749              	.LASF57:
 1750 057a 43616E5F 		.ascii	"Can_BaudrateConfigType_STag\000"
 1750      42617564 
 1750      72617465 
 1750      436F6E66 
 1750      69675479 
 1751              	.LASF11:
 1752 0596 666C6F61 		.ascii	"float\000"
 1752      7400
 1753              	.LASF94:
 1754 059c 656E4361 		.ascii	"enCanRxModeOp\000"
 1754      6E52784D 
 1754      6F64654F 
 1754      7000
 1755              	.LASF42:
 1756 05aa 43616E5F 		.ascii	"Can_IcomLevelType\000"
 1756      49636F6D 
 1756      4C657665 
 1756      6C547970 
 1756      6500
 1757              	.LASF17:
 1758 05bc 43414E5F 		.ascii	"CAN_CS_SLEEP\000"
 1758      43535F53 
 1758      4C454550 
 1758      00
 1759              	.LASF16:
 1760 05c9 43414E5F 		.ascii	"CAN_CS_STOPPED\000"
 1760      43535F53 
 1760      544F5050 
 1760      454400
 1761              	.LASF104:
 1762 05d8 43616E5F 		.ascii	"Can_ConfigType_STag\000"
 1762      436F6E66 
 1762      69675479 
 1762      70655F53 
 1762      54616700 
 1763              	.LASF117:
 1764 05ec 4C697374 		.ascii	"List\000"
 1764      00
 1765              	.LASF31:
 1766 05f1 43414E5F 		.ascii	"CAN_OBJ_RECEIVE\000"
 1766      4F424A5F 
 1766      52454345 
ARM GAS  C:\Users\nvdun\AppData\Local\Temp\cchqhv9l.s 			page 38


 1766      49564500 
 1767              	.LASF3:
 1768 0601 756E7369 		.ascii	"unsigned char\000"
 1768      676E6564 
 1768      20636861 
 1768      7200
 1769              	.LASF56:
 1770 060f 43616E5F 		.ascii	"Can_FdBaudrateConfigType_STag\000"
 1770      46644261 
 1770      75647261 
 1770      7465436F 
 1770      6E666967 
 1771              	.LASF9:
 1772 062d 73686F72 		.ascii	"short int\000"
 1772      7420696E 
 1772      7400
 1773              	.LASF68:
 1774 0637 75634361 		.ascii	"ucCanControllerDefaultBaudrate\000"
 1774      6E436F6E 
 1774      74726F6C 
 1774      6C657244 
 1774      65666175 
 1775              	.LASF70:
 1776 0656 43616E5F 		.ascii	"Can_ControllerPBConfigType\000"
 1776      436F6E74 
 1776      726F6C6C 
 1776      65725042 
 1776      436F6E66 
 1777              	.LASF123:
 1778 0671 4C756356 		.ascii	"LucVar\000"
 1778      617200
 1779              	.LASF118:
 1780 0678 43616E5F 		.ascii	"Can_GlbConfig\000"
 1780      476C6243 
 1780      6F6E6669 
 1780      6700
 1781              	.LASF26:
 1782 0686 43414E5F 		.ascii	"CAN_ID_STANDARD\000"
 1782      49445F53 
 1782      54414E44 
 1782      41524400 
 1783              	.LASF13:
 1784 0696 5374645F 		.ascii	"Std_ReturnType\000"
 1784      52657475 
 1784      726E5479 
 1784      706500
 1785              	.LASF83:
 1786 06a5 43616E5F 		.ascii	"Can_IcomControllerPBConfigType_STag\000"
 1786      49636F6D 
 1786      436F6E74 
 1786      726F6C6C 
 1786      65725042 
 1787              	.LASF53:
 1788 06c9 75634664 		.ascii	"ucFdBaudrateSspOffset\000"
 1788      42617564 
 1788      72617465 
 1788      5373704F 
ARM GAS  C:\Users\nvdun\AppData\Local\Temp\cchqhv9l.s 			page 39


 1788      66667365 
 1789              	.LASF87:
 1790 06df 656E4361 		.ascii	"enCanIcomLevel\000"
 1790      6E49636F 
 1790      6D4C6576 
 1790      656C00
 1791              	.LASF126:
 1792 06ee 443A5C54 		.ascii	"D:\\Tool\\Workspace\\Sample\000"
 1792      6F6F6C5C 
 1792      576F726B 
 1792      73706163 
 1792      655C5361 
 1793              	.LASF106:
 1794 0707 73744361 		.ascii	"stCanPBController\000"
 1794      6E504243 
 1794      6F6E7472 
 1794      6F6C6C65 
 1794      7200
 1795              	.LASF110:
 1796 0719 73744361 		.ascii	"stCanHwFilter\000"
 1796      6E487746 
 1796      696C7465 
 1796      7200
 1797              	.LASF0:
 1798 0727 626F6F6C 		.ascii	"boolean\000"
 1798      65616E00 
 1799              	.LASF100:
 1800 072f 75634361 		.ascii	"ucCanIndex\000"
 1800      6E496E64 
 1800      657800
 1801              	.LASF90:
 1802 073a 43616E5F 		.ascii	"Can_ControllerPCConfigType_STag\000"
 1802      436F6E74 
 1802      726F6C6C 
 1802      65725043 
 1802      436F6E66 
 1803              	.LASF92:
 1804 075a 656E4361 		.ascii	"enCanWakeupModeOp\000"
 1804      6E57616B 
 1804      6575704D 
 1804      6F64654F 
 1804      7000
 1805              	.LASF74:
 1806 076c 75734F62 		.ascii	"usObjCount\000"
 1806      6A436F75 
 1806      6E7400
 1807              	.LASF116:
 1808 0777 5F6E6578 		.ascii	"_next\000"
 1808      7400
 1809              	.LASF27:
 1810 077d 43414E5F 		.ascii	"CAN_ID_EXTENDED\000"
 1810      49445F45 
 1810      5854454E 
 1810      44454400 
 1811              	.LASF18:
 1812 078d 43616E5F 		.ascii	"Can_ControllerStateType\000"
 1812      436F6E74 
ARM GAS  C:\Users\nvdun\AppData\Local\Temp\cchqhv9l.s 			page 40


 1812      726F6C6C 
 1812      65725374 
 1812      61746554 
 1813              	.LASF32:
 1814 07a5 43414E5F 		.ascii	"CAN_OBJ_TRANSMIT\000"
 1814      4F424A5F 
 1814      5452414E 
 1814      534D4954 
 1814      00
 1815              	.LASF20:
 1816 07b6 43616E5F 		.ascii	"Can_ControllerStateType_ETag\000"
 1816      436F6E74 
 1816      726F6C6C 
 1816      65725374 
 1816      61746554 
 1817              	.LASF85:
 1818 07d3 43616E5F 		.ascii	"Can_HwFilterPBConfigType\000"
 1818      48774669 
 1818      6C746572 
 1818      5042436F 
 1818      6E666967 
 1819              	.LASF112:
 1820 07ec 43616E5F 		.ascii	"Can_ConfigType\000"
 1820      436F6E66 
 1820      69675479 
 1820      706500
 1821              	.LASF65:
 1822 07fb 43616E5F 		.ascii	"Can_BaudrateConfigType\000"
 1822      42617564 
 1822      72617465 
 1822      436F6E66 
 1822      69675479 
 1823              	.LASF58:
 1824 0812 73744361 		.ascii	"stCan_FdBaudrateConf\000"
 1824      6E5F4664 
 1824      42617564 
 1824      72617465 
 1824      436F6E66 
 1825              	.LASF15:
 1826 0827 43414E5F 		.ascii	"CAN_CS_STARTED\000"
 1826      43535F53 
 1826      54415254 
 1826      454400
 1827              	.LASF43:
 1828 0836 43616E49 		.ascii	"CanIcomVariantType_ETag\000"
 1828      636F6D56 
 1828      61726961 
 1828      6E745479 
 1828      70655F45 
 1829              	.LASF86:
 1830 084e 43616E5F 		.ascii	"Can_IcomGeneralPCConfigType_STag\000"
 1830      49636F6D 
 1830      47656E65 
 1830      72616C50 
 1830      43436F6E 
 1831              	.LASF25:
 1832 086f 43616E49 		.ascii	"CanIdType_ETag\000"
ARM GAS  C:\Users\nvdun\AppData\Local\Temp\cchqhv9l.s 			page 41


 1832      64547970 
 1832      655F4554 
 1832      616700
 1833              	.LASF103:
 1834 087e 43616E5F 		.ascii	"Can_GeneralPCConfigType\000"
 1834      47656E65 
 1834      72616C50 
 1834      43436F6E 
 1834      66696754 
 1835              	.LASF22:
 1836 0896 43414E5F 		.ascii	"CAN_OBJ_BASIC\000"
 1836      4F424A5F 
 1836      42415349 
 1836      4300
 1837              	.LASF39:
 1838 08a4 43616E5F 		.ascii	"Can_IcomLevelType_ETag\000"
 1838      49636F6D 
 1838      4C657665 
 1838      6C547970 
 1838      655F4554 
 1839              	.LASF108:
 1840 08bb 73744361 		.ascii	"stCanIcomPBController\000"
 1840      6E49636F 
 1840      6D504243 
 1840      6F6E7472 
 1840      6F6C6C65 
 1841              	.LASF46:
 1842 08d1 43414E5F 		.ascii	"CAN_ICOM_VARIANT_SW\000"
 1842      49434F4D 
 1842      5F564152 
 1842      49414E54 
 1842      5F535700 
 1843              	.LASF115:
 1844 08e5 64617461 		.ascii	"data_ptr\000"
 1844      5F707472 
 1844      00
 1845              	.LASF114:
 1846 08ee 5F707265 		.ascii	"_pre\000"
 1846      00
 1847              	.LASF121:
 1848 08f3 6D61696E 		.ascii	"main\000"
 1848      00
 1849              	.LASF107:
 1850 08f8 73744361 		.ascii	"stCanPCGeneral\000"
 1850      6E504347 
 1850      656E6572 
 1850      616C00
 1851              	.LASF52:
 1852 0907 75634664 		.ascii	"ucFdFdBaudrateSJW\000"
 1852      46644261 
 1852      75647261 
 1852      7465534A 
 1852      5700
 1853              		.ident	"GCC: (GNU Tools for Arm Embedded Processors 7-2017-q4-major) 7.2.1 20170904 (release) [ARM
ARM GAS  C:\Users\nvdun\AppData\Local\Temp\cchqhv9l.s 			page 42


DEFINED SYMBOLS
                            *ABS*:00000000 SampleApp.c
C:\Users\nvdun\AppData\Local\Temp\cchqhv9l.s:20     .data:00000000 arr
C:\Users\nvdun\AppData\Local\Temp\cchqhv9l.s:17     .data:00000000 $d
C:\Users\nvdun\AppData\Local\Temp\cchqhv9l.s:29     .data:00000004 mylist
C:\Users\nvdun\AppData\Local\Temp\cchqhv9l.s:34     .rodata:00000000 $d
C:\Users\nvdun\AppData\Local\Temp\cchqhv9l.s:39     .text:00000000 $t
C:\Users\nvdun\AppData\Local\Temp\cchqhv9l.s:46     .text:00000000 main
C:\Users\nvdun\AppData\Local\Temp\cchqhv9l.s:133    .text:00000064 add_list
C:\Users\nvdun\AppData\Local\Temp\cchqhv9l.s:121    .text:0000005c $d
C:\Users\nvdun\AppData\Local\Temp\cchqhv9l.s:126    .text:00000064 $t
C:\Users\nvdun\AppData\Local\Temp\cchqhv9l.s:178    .text:00000084 $d
C:\Users\nvdun\AppData\Local\Temp\cchqhv9l.s:182    .text:00000088 $t
C:\Users\nvdun\AppData\Local\Temp\cchqhv9l.s:189    .text:00000088 System_Init
C:\Users\nvdun\AppData\Local\Temp\cchqhv9l.s:221    .text:0000009c $d

UNDEFINED SYMBOLS
Can_Init
